ARM GAS  C:\Users\alexa\AppData\Local\Temp\ccdrYP8A.s 			page 1


   1              		.cpu cortex-m4
   2              		.eabi_attribute 27, 1
   3              		.eabi_attribute 28, 1
   4              		.eabi_attribute 20, 1
   5              		.eabi_attribute 21, 1
   6              		.eabi_attribute 23, 3
   7              		.eabi_attribute 24, 1
   8              		.eabi_attribute 25, 1
   9              		.eabi_attribute 26, 1
  10              		.eabi_attribute 30, 2
  11              		.eabi_attribute 34, 1
  12              		.eabi_attribute 18, 4
  13              		.file	"audio_processing.c"
  14              		.text
  15              	.Ltext0:
  16              		.cfi_sections	.debug_frame
  17              		.section	.text.wait_send_to_computer,"ax",%progbits
  18              		.align	1
  19              		.p2align 4,,15
  20              		.global	wait_send_to_computer
  21              		.syntax unified
  22              		.thumb
  23              		.thumb_func
  24              		.fpu fpv4-sp-d16
  25              		.type	wait_send_to_computer, %function
  26              	wait_send_to_computer:
  27              	.LFB292:
  28              		.file 1 "audio_processing.c"
  29              		.loc 1 198 0
  30              		.cfi_startproc
  31              		@ args = 0, pretend = 0, frame = 8
  32              		@ frame_needed = 0, uses_anonymous_args = 0
  33 0000 00B5     		push	{lr}
  34              		.cfi_def_cfa_offset 4
  35              		.cfi_offset 14, -4
  36 0002 084B     		ldr	r3, .L7
  37 0004 83B0     		sub	sp, sp, #12
  38              		.cfi_def_cfa_offset 16
  39              		.loc 1 198 0
  40 0006 1A68     		ldr	r2, [r3]
  41 0008 0192     		str	r2, [sp, #4]
  42              	.LVL0:
  43              	.LBB30:
  44              	.LBB31:
  45              		.file 2 "../../lib/e-puck2_main-processor/ChibiOS//os/rt/include/chbsem.h"
  46              		.loc 2 143 0
  47 000a 019A     		ldr	r2, [sp, #4]
  48 000c 1B68     		ldr	r3, [r3]
  49 000e 9A42     		cmp	r2, r3
  50 0010 05D1     		bne	.L6
  51 0012 0548     		ldr	r0, .L7+4
  52              	.LBE31:
  53              	.LBE30:
  54              		.loc 1 200 0
  55 0014 03B0     		add	sp, sp, #12
  56              		.cfi_remember_state
  57              		.cfi_def_cfa_offset 4
ARM GAS  C:\Users\alexa\AppData\Local\Temp\ccdrYP8A.s 			page 2


  58              		@ sp needed
  59 0016 5DF804EB 		ldr	lr, [sp], #4
  60              		.cfi_restore 14
  61              		.cfi_def_cfa_offset 0
  62              	.LBB33:
  63              	.LBB32:
  64              		.loc 2 143 0
  65 001a FFF7FEBF 		b	chSemWait
  66              	.LVL1:
  67              	.L6:
  68              		.cfi_restore_state
  69 001e FFF7FEFF 		bl	__stack_chk_fail
  70              	.LVL2:
  71              	.L8:
  72 0022 00BF     		.align	2
  73              	.L7:
  74 0024 00000000 		.word	__stack_chk_guard
  75 0028 00000000 		.word	.LANCHOR0
  76              	.LBE32:
  77              	.LBE33:
  78              		.cfi_endproc
  79              	.LFE292:
  80              		.size	wait_send_to_computer, .-wait_send_to_computer
  81              		.section	.text.get_audio_buffer_ptr,"ax",%progbits
  82              		.align	1
  83              		.p2align 4,,15
  84              		.global	get_audio_buffer_ptr
  85              		.syntax unified
  86              		.thumb
  87              		.thumb_func
  88              		.fpu fpv4-sp-d16
  89              		.type	get_audio_buffer_ptr, %function
  90              	get_audio_buffer_ptr:
  91              	.LFB293:
  92              		.loc 1 202 0
  93              		.cfi_startproc
  94              		@ args = 0, pretend = 0, frame = 8
  95              		@ frame_needed = 0, uses_anonymous_args = 0
  96              	.LVL3:
  97 0000 00B5     		push	{lr}
  98              		.cfi_def_cfa_offset 4
  99              		.cfi_offset 14, -4
 100 0002 0A4A     		ldr	r2, .L16
 101 0004 83B0     		sub	sp, sp, #12
 102              		.cfi_def_cfa_offset 16
 103              		.loc 1 202 0
 104 0006 1368     		ldr	r3, [r2]
 105 0008 0193     		str	r3, [sp, #4]
 106              		.loc 1 203 0
 107 000a 58B1     		cbz	r0, .L12
 108              		.loc 1 210 0
 109 000c 084B     		ldr	r3, .L16+4
 110              		.loc 1 206 0
 111 000e 0428     		cmp	r0, #4
 112              		.loc 1 210 0
 113 0010 0CBF     		ite	eq
 114 0012 1846     		moveq	r0, r3
ARM GAS  C:\Users\alexa\AppData\Local\Temp\ccdrYP8A.s 			page 3


 115              	.LVL4:
 116 0014 0020     		movne	r0, #0
 117              	.L9:
 118              		.loc 1 212 0
 119 0016 0199     		ldr	r1, [sp, #4]
 120 0018 1368     		ldr	r3, [r2]
 121 001a 9942     		cmp	r1, r3
 122 001c 04D1     		bne	.L15
 123 001e 03B0     		add	sp, sp, #12
 124              		.cfi_remember_state
 125              		.cfi_def_cfa_offset 4
 126              		@ sp needed
 127 0020 5DF804FB 		ldr	pc, [sp], #4
 128              	.LVL5:
 129              	.L12:
 130              		.cfi_restore_state
 131              		.loc 1 204 0
 132 0024 0348     		ldr	r0, .L16+8
 133              	.LVL6:
 134 0026 F6E7     		b	.L9
 135              	.L15:
 136              		.loc 1 212 0
 137 0028 FFF7FEFF 		bl	__stack_chk_fail
 138              	.LVL7:
 139              	.L17:
 140              		.align	2
 141              	.L16:
 142 002c 00000000 		.word	__stack_chk_guard
 143 0030 00000000 		.word	micLeft_output
 144 0034 00000000 		.word	micLeft_cmplx_input
 145              		.cfi_endproc
 146              	.LFE293:
 147              		.size	get_audio_buffer_ptr, .-get_audio_buffer_ptr
 148              		.section	.text.direction_enable,"ax",%progbits
 149              		.align	1
 150              		.p2align 4,,15
 151              		.global	direction_enable
 152              		.syntax unified
 153              		.thumb
 154              		.thumb_func
 155              		.fpu fpv4-sp-d16
 156              		.type	direction_enable, %function
 157              	direction_enable:
 158              	.LFB294:
 159              		.loc 1 214 0
 160              		.cfi_startproc
 161              		@ args = 0, pretend = 0, frame = 8
 162              		@ frame_needed = 0, uses_anonymous_args = 0
 163              	.LVL8:
 164 0000 30B5     		push	{r4, r5, lr}
 165              		.cfi_def_cfa_offset 12
 166              		.cfi_offset 4, -12
 167              		.cfi_offset 5, -8
 168              		.cfi_offset 14, -4
 169 0002 204B     		ldr	r3, .L34
 170 0004 83B0     		sub	sp, sp, #12
 171              		.cfi_def_cfa_offset 24
ARM GAS  C:\Users\alexa\AppData\Local\Temp\ccdrYP8A.s 			page 4


 172              		.loc 1 214 0
 173 0006 1A68     		ldr	r2, [r3]
 174 0008 0192     		str	r2, [sp, #4]
 175              		.loc 1 215 0
 176 000a 0728     		cmp	r0, #7
 177 000c 0CD8     		bhi	.L18
 178 000e DFE800F0 		tbb	[pc, r0]
 179              	.L21:
 180 0012 15       		.byte	(.L20-.L21)/2
 181 0013 1B       		.byte	(.L22-.L21)/2
 182 0014 21       		.byte	(.L23-.L21)/2
 183 0015 04       		.byte	(.L24-.L21)/2
 184 0016 27       		.byte	(.L25-.L21)/2
 185 0017 2A       		.byte	(.L26-.L21)/2
 186 0018 2C       		.byte	(.L27-.L21)/2
 187 0019 11       		.byte	(.L28-.L21)/2
 188              		.p2align 1
 189              	.L24:
 190              		.loc 1 230 0
 191 001a 1B4C     		ldr	r4, .L34+4
 192              		.loc 1 231 0
 193 001c 1B48     		ldr	r0, .L34+8
 194              	.LVL9:
 195              	.L31:
 196              		.loc 1 242 0
 197 001e 1C49     		ldr	r1, .L34+12
 198              		.loc 1 240 0
 199 0020 0122     		movs	r2, #1
 200 0022 2260     		str	r2, [r4]
 201              		.loc 1 241 0
 202 0024 0260     		str	r2, [r0]
 203              		.loc 1 242 0
 204 0026 0A60     		str	r2, [r1]
 205              	.L18:
 206              		.loc 1 254 0
 207 0028 019A     		ldr	r2, [sp, #4]
 208 002a 1B68     		ldr	r3, [r3]
 209 002c 9A42     		cmp	r2, r3
 210 002e 26D1     		bne	.L33
 211 0030 03B0     		add	sp, sp, #12
 212              		.cfi_remember_state
 213              		.cfi_def_cfa_offset 12
 214              		@ sp needed
 215 0032 30BD     		pop	{r4, r5, pc}
 216              	.LVL10:
 217              	.L28:
 218              		.cfi_restore_state
 219              		.loc 1 251 0
 220 0034 164A     		ldr	r2, .L34+12
 221 0036 0121     		movs	r1, #1
 222 0038 1160     		str	r1, [r2]
 223              		.loc 1 254 0
 224 003a F5E7     		b	.L18
 225              	.L20:
 226              		.loc 1 218 0
 227 003c 1548     		ldr	r0, .L34+16
 228              	.LVL11:
ARM GAS  C:\Users\alexa\AppData\Local\Temp\ccdrYP8A.s 			page 5


 229              		.loc 1 219 0
 230 003e 1449     		ldr	r1, .L34+12
 231              		.loc 1 218 0
 232 0040 0122     		movs	r2, #1
 233 0042 0260     		str	r2, [r0]
 234              		.loc 1 219 0
 235 0044 0A60     		str	r2, [r1]
 236              		.loc 1 220 0
 237 0046 EFE7     		b	.L18
 238              	.LVL12:
 239              	.L22:
 240              		.loc 1 222 0
 241 0048 1048     		ldr	r0, .L34+8
 242              	.LVL13:
 243              		.loc 1 223 0
 244 004a 1149     		ldr	r1, .L34+12
 245              		.loc 1 222 0
 246 004c 0122     		movs	r2, #1
 247 004e 0260     		str	r2, [r0]
 248              		.loc 1 223 0
 249 0050 0A60     		str	r2, [r1]
 250              		.loc 1 224 0
 251 0052 E9E7     		b	.L18
 252              	.LVL14:
 253              	.L23:
 254              		.loc 1 226 0
 255 0054 0C48     		ldr	r0, .L34+4
 256              	.LVL15:
 257              		.loc 1 227 0
 258 0056 0E49     		ldr	r1, .L34+12
 259              		.loc 1 226 0
 260 0058 0122     		movs	r2, #1
 261 005a 0260     		str	r2, [r0]
 262              		.loc 1 227 0
 263 005c 0A60     		str	r2, [r1]
 264              		.loc 1 228 0
 265 005e E3E7     		b	.L18
 266              	.LVL16:
 267              	.L25:
 268              		.loc 1 235 0
 269 0060 0A4C     		ldr	r4, .L34+8
 270              	.L32:
 271              		.loc 1 241 0
 272 0062 0C48     		ldr	r0, .L34+16
 273              	.LVL17:
 274 0064 DBE7     		b	.L31
 275              	.LVL18:
 276              	.L26:
 277              		.loc 1 240 0
 278 0066 084C     		ldr	r4, .L34+4
 279 0068 FBE7     		b	.L32
 280              	.L27:
 281              	.LVL19:
 282              	.LBB36:
 283              	.LBB37:
 284              		.loc 1 245 0
 285 006a 084D     		ldr	r5, .L34+8
ARM GAS  C:\Users\alexa\AppData\Local\Temp\ccdrYP8A.s 			page 6


 286              		.loc 1 246 0
 287 006c 064C     		ldr	r4, .L34+4
 288              		.loc 1 247 0
 289 006e 0948     		ldr	r0, .L34+16
 290              	.LVL20:
 291              		.loc 1 248 0
 292 0070 0749     		ldr	r1, .L34+12
 293              		.loc 1 245 0
 294 0072 0122     		movs	r2, #1
 295 0074 2A60     		str	r2, [r5]
 296              		.loc 1 246 0
 297 0076 2260     		str	r2, [r4]
 298              		.loc 1 247 0
 299 0078 0260     		str	r2, [r0]
 300              		.loc 1 248 0
 301 007a 0A60     		str	r2, [r1]
 302 007c D4E7     		b	.L18
 303              	.LVL21:
 304              	.L33:
 305              	.LBE37:
 306              	.LBE36:
 307              		.loc 1 254 0
 308 007e FFF7FEFF 		bl	__stack_chk_fail
 309              	.LVL22:
 310              	.L35:
 311 0082 00BF     		.align	2
 312              	.L34:
 313 0084 00000000 		.word	__stack_chk_guard
 314 0088 00000000 		.word	.LANCHOR4
 315 008c 00000000 		.word	.LANCHOR3
 316 0090 00000000 		.word	.LANCHOR2
 317 0094 00000000 		.word	.LANCHOR1
 318              		.cfi_endproc
 319              	.LFE294:
 320              		.size	direction_enable, .-direction_enable
 321              		.section	.text.direction_led,"ax",%progbits
 322              		.align	1
 323              		.p2align 4,,15
 324              		.global	direction_led
 325              		.syntax unified
 326              		.thumb
 327              		.thumb_func
 328              		.fpu fpv4-sp-d16
 329              		.type	direction_led, %function
 330              	direction_led:
 331              	.LFB295:
 332              		.loc 1 256 0
 333              		.cfi_startproc
 334              		@ args = 0, pretend = 0, frame = 8
 335              		@ frame_needed = 0, uses_anonymous_args = 0
 336 0000 10B5     		push	{r4, lr}
 337              		.cfi_def_cfa_offset 8
 338              		.cfi_offset 4, -8
 339              		.cfi_offset 14, -4
 340 0002 194C     		ldr	r4, .L49
 341 0004 82B0     		sub	sp, sp, #8
 342              		.cfi_def_cfa_offset 16
ARM GAS  C:\Users\alexa\AppData\Local\Temp\ccdrYP8A.s 			page 7


 343              		.loc 1 256 0
 344 0006 2368     		ldr	r3, [r4]
 345 0008 0193     		str	r3, [sp, #4]
 346              		.loc 1 258 0
 347 000a FFF7FEFF 		bl	clear_leds
 348              	.LVL23:
 349              		.loc 1 260 0
 350 000e 174B     		ldr	r3, .L49+4
 351 0010 1868     		ldr	r0, [r3]
 352 0012 10B3     		cbz	r0, .L45
 353              	.L37:
 354              		.loc 1 263 0
 355 0014 164B     		ldr	r3, .L49+8
 356 0016 1B68     		ldr	r3, [r3]
 357 0018 D3B1     		cbz	r3, .L46
 358              	.L38:
 359              		.loc 1 266 0
 360 001a 164B     		ldr	r3, .L49+12
 361 001c 1B68     		ldr	r3, [r3]
 362 001e 93B1     		cbz	r3, .L47
 363              	.L39:
 364              		.loc 1 269 0
 365 0020 154B     		ldr	r3, .L49+16
 366              	.LBB40:
 367              	.LBB41:
 368              		.loc 1 270 0
 369 0022 019A     		ldr	r2, [sp, #4]
 370              	.LBE41:
 371              	.LBE40:
 372              		.loc 1 269 0
 373 0024 1B68     		ldr	r3, [r3]
 374 0026 23B1     		cbz	r3, .L48
 375              		.loc 1 272 0
 376 0028 2368     		ldr	r3, [r4]
 377 002a 9A42     		cmp	r2, r3
 378 002c 19D1     		bne	.L44
 379 002e 02B0     		add	sp, sp, #8
 380              		.cfi_remember_state
 381              		.cfi_def_cfa_offset 8
 382              		@ sp needed
 383 0030 10BD     		pop	{r4, pc}
 384              	.L48:
 385              		.cfi_restore_state
 386              	.LBB44:
 387              	.LBB42:
 388              		.loc 1 270 0
 389 0032 2368     		ldr	r3, [r4]
 390 0034 9A42     		cmp	r2, r3
 391 0036 14D1     		bne	.L44
 392 0038 0121     		movs	r1, #1
 393 003a 0220     		movs	r0, #2
 394              	.LBE42:
 395              	.LBE44:
 396              		.loc 1 272 0
 397 003c 02B0     		add	sp, sp, #8
 398              		.cfi_remember_state
 399              		.cfi_def_cfa_offset 8
ARM GAS  C:\Users\alexa\AppData\Local\Temp\ccdrYP8A.s 			page 8


 400              		@ sp needed
 401 003e BDE81040 		pop	{r4, lr}
 402              		.cfi_restore 14
 403              		.cfi_restore 4
 404              		.cfi_def_cfa_offset 0
 405              	.LBB45:
 406              	.LBB43:
 407              		.loc 1 270 0
 408 0042 FFF7FEBF 		b	set_led
 409              	.LVL24:
 410              	.L47:
 411              		.cfi_restore_state
 412              	.LBE43:
 413              	.LBE45:
 414              		.loc 1 267 0
 415 0046 0121     		movs	r1, #1
 416 0048 0846     		mov	r0, r1
 417 004a FFF7FEFF 		bl	set_led
 418              	.LVL25:
 419 004e E7E7     		b	.L39
 420              	.L46:
 421              		.loc 1 264 0
 422 0050 0121     		movs	r1, #1
 423 0052 0320     		movs	r0, #3
 424 0054 FFF7FEFF 		bl	set_led
 425              	.LVL26:
 426 0058 DFE7     		b	.L38
 427              	.L45:
 428              		.loc 1 261 0
 429 005a 0121     		movs	r1, #1
 430 005c FFF7FEFF 		bl	set_led
 431              	.LVL27:
 432 0060 D8E7     		b	.L37
 433              	.L44:
 434              		.loc 1 272 0
 435 0062 FFF7FEFF 		bl	__stack_chk_fail
 436              	.LVL28:
 437              	.L50:
 438 0066 00BF     		.align	2
 439              	.L49:
 440 0068 00000000 		.word	__stack_chk_guard
 441 006c 00000000 		.word	.LANCHOR1
 442 0070 00000000 		.word	.LANCHOR3
 443 0074 00000000 		.word	.LANCHOR4
 444 0078 00000000 		.word	.LANCHOR2
 445              		.cfi_endproc
 446              	.LFE295:
 447              		.size	direction_led, .-direction_led
 448              		.section	.text.audio_displacement,"ax",%progbits
 449              		.align	1
 450              		.p2align 4,,15
 451              		.global	audio_displacement
 452              		.syntax unified
 453              		.thumb
 454              		.thumb_func
 455              		.fpu fpv4-sp-d16
 456              		.type	audio_displacement, %function
ARM GAS  C:\Users\alexa\AppData\Local\Temp\ccdrYP8A.s 			page 9


 457              	audio_displacement:
 458              	.LFB296:
 459              		.loc 1 274 0
 460              		.cfi_startproc
 461              		@ args = 0, pretend = 0, frame = 8
 462              		@ frame_needed = 0, uses_anonymous_args = 0
 463              	.LVL29:
 464 0000 10B5     		push	{r4, lr}
 465              		.cfi_def_cfa_offset 8
 466              		.cfi_offset 4, -8
 467              		.cfi_offset 14, -4
 468 0002 4F4C     		ldr	r4, .L80
 469 0004 82B0     		sub	sp, sp, #8
 470              		.cfi_def_cfa_offset 16
 471              		.loc 1 274 0
 472 0006 2368     		ldr	r3, [r4]
 473 0008 0193     		str	r3, [sp, #4]
 474              		.loc 1 276 0
 475 000a 0428     		cmp	r0, #4
 476 000c 00F28F80 		bhi	.L51
 477 0010 DFE800F0 		tbb	[pc, r0]
 478              	.L54:
 479 0014 20       		.byte	(.L53-.L54)/2
 480 0015 6E       		.byte	(.L55-.L54)/2
 481 0016 30       		.byte	(.L56-.L54)/2
 482 0017 4F       		.byte	(.L57-.L54)/2
 483 0018 03       		.byte	(.L58-.L54)/2
 484 0019 00       		.p2align 1
 485              	.L58:
 486              		.loc 1 328 0
 487 001a 6FF0F900 		mvn	r0, #249
 488              	.LVL30:
 489 001e FFF7FEFF 		bl	left_motor_set_pos
 490              	.LVL31:
 491              		.loc 1 329 0
 492 0022 4FF4C870 		mov	r0, #400
 493 0026 FFF7FEFF 		bl	right_motor_set_speed
 494              	.LVL32:
 495              		.loc 1 330 0
 496 002a 4FF4C870 		mov	r0, #400
 497 002e FFF7FEFF 		bl	left_motor_set_speed
 498              	.LVL33:
 499              	.L68:
 500              		.loc 1 331 0 discriminator 1
 501 0032 FFF7FEFF 		bl	left_motor_get_pos
 502              	.LVL34:
 503 0036 0028     		cmp	r0, #0
 504 0038 FBDB     		blt	.L68
 505              	.L63:
 506              		.loc 1 283 0
 507 003a 0020     		movs	r0, #0
 508 003c FFF7FEFF 		bl	right_motor_set_speed
 509              	.LVL35:
 510              		.loc 1 284 0
 511 0040 019A     		ldr	r2, [sp, #4]
 512 0042 2368     		ldr	r3, [r4]
 513 0044 9A42     		cmp	r2, r3
ARM GAS  C:\Users\alexa\AppData\Local\Temp\ccdrYP8A.s 			page 10


 514 0046 78D1     		bne	.L79
 515 0048 0020     		movs	r0, #0
 516              		.loc 1 336 0
 517 004a 02B0     		add	sp, sp, #8
 518              		.cfi_remember_state
 519              		.cfi_def_cfa_offset 8
 520              		@ sp needed
 521 004c BDE81040 		pop	{r4, lr}
 522              		.cfi_restore 14
 523              		.cfi_restore 4
 524              		.cfi_def_cfa_offset 0
 525              		.loc 1 284 0
 526 0050 FFF7FEBF 		b	left_motor_set_speed
 527              	.LVL36:
 528              	.L53:
 529              		.cfi_restore_state
 530              		.loc 1 279 0
 531 0054 3B48     		ldr	r0, .L80+4
 532              	.LVL37:
 533 0056 FFF7FEFF 		bl	left_motor_set_pos
 534              	.LVL38:
 535              		.loc 1 280 0
 536 005a 4FF4C870 		mov	r0, #400
 537 005e FFF7FEFF 		bl	right_motor_set_speed
 538              	.LVL39:
 539              		.loc 1 281 0
 540 0062 4FF4C870 		mov	r0, #400
 541 0066 FFF7FEFF 		bl	left_motor_set_speed
 542              	.LVL40:
 543              	.L59:
 544              		.loc 1 282 0 discriminator 1
 545 006a FFF7FEFF 		bl	left_motor_get_pos
 546              	.LVL41:
 547 006e 0028     		cmp	r0, #0
 548 0070 FBDB     		blt	.L59
 549 0072 E2E7     		b	.L63
 550              	.LVL42:
 551              	.L56:
 552              		.loc 1 302 0
 553 0074 40F24710 		movw	r0, #327
 554              	.LVL43:
 555 0078 FFF7FEFF 		bl	right_motor_set_pos
 556              	.LVL44:
 557              		.loc 1 303 0
 558 007c 6FF0C700 		mvn	r0, #199
 559 0080 FFF7FEFF 		bl	right_motor_set_speed
 560              	.LVL45:
 561              		.loc 1 304 0
 562 0084 C820     		movs	r0, #200
 563 0086 FFF7FEFF 		bl	left_motor_set_speed
 564              	.LVL46:
 565              	.L64:
 566              		.loc 1 305 0 discriminator 1
 567 008a FFF7FEFF 		bl	right_motor_get_pos
 568              	.LVL47:
 569 008e 0028     		cmp	r0, #0
 570 0090 FBDC     		bgt	.L64
ARM GAS  C:\Users\alexa\AppData\Local\Temp\ccdrYP8A.s 			page 11


 571              		.loc 1 306 0
 572 0092 2C48     		ldr	r0, .L80+4
 573 0094 FFF7FEFF 		bl	left_motor_set_pos
 574              	.LVL48:
 575              		.loc 1 307 0
 576 0098 4FF4C870 		mov	r0, #400
 577 009c FFF7FEFF 		bl	right_motor_set_speed
 578              	.LVL49:
 579              		.loc 1 308 0
 580 00a0 4FF4C870 		mov	r0, #400
 581 00a4 FFF7FEFF 		bl	left_motor_set_speed
 582              	.LVL50:
 583              	.L65:
 584              		.loc 1 309 0 discriminator 1
 585 00a8 FFF7FEFF 		bl	left_motor_get_pos
 586              	.LVL51:
 587 00ac 0028     		cmp	r0, #0
 588 00ae FBDB     		blt	.L65
 589 00b0 C3E7     		b	.L63
 590              	.LVL52:
 591              	.L57:
 592              		.loc 1 315 0
 593 00b2 40F28E20 		movw	r0, #654
 594              	.LVL53:
 595 00b6 FFF7FEFF 		bl	left_motor_set_pos
 596              	.LVL54:
 597              		.loc 1 316 0
 598 00ba C820     		movs	r0, #200
 599 00bc FFF7FEFF 		bl	right_motor_set_speed
 600              	.LVL55:
 601              		.loc 1 317 0
 602 00c0 6FF0C700 		mvn	r0, #199
 603 00c4 FFF7FEFF 		bl	left_motor_set_speed
 604              	.LVL56:
 605              	.L66:
 606              		.loc 1 318 0 discriminator 1
 607 00c8 FFF7FEFF 		bl	left_motor_get_pos
 608              	.LVL57:
 609 00cc 0028     		cmp	r0, #0
 610 00ce FBDC     		bgt	.L66
 611              		.loc 1 319 0
 612 00d0 1C48     		ldr	r0, .L80+4
 613 00d2 FFF7FEFF 		bl	left_motor_set_pos
 614              	.LVL58:
 615              		.loc 1 320 0
 616 00d6 4FF4C870 		mov	r0, #400
 617 00da FFF7FEFF 		bl	right_motor_set_speed
 618              	.LVL59:
 619              		.loc 1 321 0
 620 00de 4FF4C870 		mov	r0, #400
 621 00e2 FFF7FEFF 		bl	left_motor_set_speed
 622              	.LVL60:
 623              	.L67:
 624              		.loc 1 322 0 discriminator 1
 625 00e6 FFF7FEFF 		bl	left_motor_get_pos
 626              	.LVL61:
 627 00ea 0028     		cmp	r0, #0
ARM GAS  C:\Users\alexa\AppData\Local\Temp\ccdrYP8A.s 			page 12


 628 00ec FBDB     		blt	.L67
 629 00ee A4E7     		b	.L63
 630              	.LVL62:
 631              	.L55:
 632              		.loc 1 289 0
 633 00f0 40F24710 		movw	r0, #327
 634              	.LVL63:
 635 00f4 FFF7FEFF 		bl	left_motor_set_pos
 636              	.LVL64:
 637              		.loc 1 290 0
 638 00f8 C820     		movs	r0, #200
 639 00fa FFF7FEFF 		bl	right_motor_set_speed
 640              	.LVL65:
 641              		.loc 1 291 0
 642 00fe 6FF0C700 		mvn	r0, #199
 643 0102 FFF7FEFF 		bl	left_motor_set_speed
 644              	.LVL66:
 645              	.L61:
 646              		.loc 1 292 0 discriminator 1
 647 0106 FFF7FEFF 		bl	left_motor_get_pos
 648              	.LVL67:
 649 010a 0028     		cmp	r0, #0
 650 010c FBDC     		bgt	.L61
 651              		.loc 1 293 0
 652 010e 0D48     		ldr	r0, .L80+4
 653 0110 FFF7FEFF 		bl	left_motor_set_pos
 654              	.LVL68:
 655              		.loc 1 294 0
 656 0114 4FF4C870 		mov	r0, #400
 657 0118 FFF7FEFF 		bl	right_motor_set_speed
 658              	.LVL69:
 659              		.loc 1 295 0
 660 011c 4FF4C870 		mov	r0, #400
 661 0120 FFF7FEFF 		bl	left_motor_set_speed
 662              	.LVL70:
 663              	.L62:
 664              		.loc 1 296 0 discriminator 1
 665 0124 FFF7FEFF 		bl	left_motor_get_pos
 666              	.LVL71:
 667 0128 0028     		cmp	r0, #0
 668 012a FBDB     		blt	.L62
 669 012c 85E7     		b	.L63
 670              	.LVL72:
 671              	.L51:
 672              		.loc 1 336 0
 673 012e 019A     		ldr	r2, [sp, #4]
 674 0130 2368     		ldr	r3, [r4]
 675 0132 9A42     		cmp	r2, r3
 676 0134 01D1     		bne	.L79
 677 0136 02B0     		add	sp, sp, #8
 678              		@ sp needed
 679 0138 10BD     		pop	{r4, pc}
 680              	.LVL73:
 681              	.L79:
 682 013a FFF7FEFF 		bl	__stack_chk_fail
 683              	.LVL74:
 684              	.L81:
ARM GAS  C:\Users\alexa\AppData\Local\Temp\ccdrYP8A.s 			page 13


 685 013e 00BF     		.align	2
 686              	.L80:
 687 0140 00000000 		.word	__stack_chk_guard
 688 0144 70FEFFFF 		.word	-400
 689              		.cfi_endproc
 690              	.LFE296:
 691              		.size	audio_displacement, .-audio_displacement
 692              		.section	.text.sound_remote,"ax",%progbits
 693              		.align	1
 694              		.p2align 4,,15
 695              		.global	sound_remote
 696              		.syntax unified
 697              		.thumb
 698              		.thumb_func
 699              		.fpu fpv4-sp-d16
 700              		.type	sound_remote, %function
 701              	sound_remote:
 702              	.LFB290:
 703              		.loc 1 67 0
 704              		.cfi_startproc
 705              		@ args = 0, pretend = 0, frame = 8
 706              		@ frame_needed = 0, uses_anonymous_args = 0
 707              	.LVL75:
 708 0000 2DE9F041 		push	{r4, r5, r6, r7, r8, lr}
 709              		.cfi_def_cfa_offset 24
 710              		.cfi_offset 4, -24
 711              		.cfi_offset 5, -20
 712              		.cfi_offset 6, -16
 713              		.cfi_offset 7, -12
 714              		.cfi_offset 8, -8
 715              		.cfi_offset 14, -4
 716 0004 3E4D     		ldr	r5, .L113
 717 0006 82B0     		sub	sp, sp, #8
 718              		.cfi_def_cfa_offset 32
 719              		.loc 1 67 0
 720 0008 2B68     		ldr	r3, [r5]
 721 000a 0193     		str	r3, [sp, #4]
 722              	.LVL76:
 723 000c 0446     		mov	r4, r0
 724              		.loc 1 72 0
 725 000e FFF7FEFF 		bl	get_movement
 726              	.LVL77:
 727 0012 FFF7FEFF 		bl	direction_enable
 728              	.LVL78:
 729              		.loc 1 73 0
 730 0016 FFF7FEFF 		bl	direction_led
 731              	.LVL79:
 732              		.loc 1 68 0
 733 001a 9FED3A7A 		vldr.32	s14, .L113+4
 734 001e 04F17800 		add	r0, r4, #120
 735              		.loc 1 73 0
 736 0022 1E23     		movs	r3, #30
 737              		.loc 1 69 0
 738 0024 4FF0FF32 		mov	r2, #-1
 739              	.LVL80:
 740              	.L85:
 741              	.LBB46:
ARM GAS  C:\Users\alexa\AppData\Local\Temp\ccdrYP8A.s 			page 14


 742              		.loc 1 76 0
 743 0028 F0EC017A 		vldmia.32	r0!, {s15}
 744 002c F4EEC77A 		vcmpe.f32	s15, s14
 745 0030 F1EE10FA 		vmrs	APSR_nzcv, FPSCR
 746              	.LVL81:
 747              		.loc 1 78 0
 748 0034 C8BF     		it	gt
 749 0036 1AB2     		sxthgt	r2, r3
 750              	.LVL82:
 751 0038 03F10103 		add	r3, r3, #1
 752              	.LVL83:
 753              		.loc 1 77 0
 754 003c C8BF     		it	gt
 755 003e B0EE677A 		vmovgt.f32	s14, s15
 756              	.LVL84:
 757              		.loc 1 75 0
 758 0042 3D2B     		cmp	r3, #61
 759 0044 F0D1     		bne	.L85
 760              	.LBE46:
 761              		.loc 1 83 0
 762 0046 92B2     		uxth	r2, r2
 763 0048 A2F12303 		sub	r3, r2, #35
 764 004c 022B     		cmp	r3, #2
 765 004e 13D8     		bhi	.L86
 766              		.loc 1 84 0
 767 0050 2D4C     		ldr	r4, .L113+8
 768              	.LVL85:
 769 0052 2368     		ldr	r3, [r4]
 770 0054 7BBB     		cbnz	r3, .L102
 771              	.LVL86:
 772              	.L107:
 773 0056 2D4E     		ldr	r6, .L113+12
 774 0058 2D4F     		ldr	r7, .L113+16
 775 005a DFF8BC80 		ldr	r8, .L113+24
 776              	.L87:
 777              		.loc 1 112 0
 778 005e 0199     		ldr	r1, [sp, #4]
 779 0060 2A68     		ldr	r2, [r5]
 780              		.loc 1 111 0
 781 0062 0023     		movs	r3, #0
 782              		.loc 1 112 0
 783 0064 9142     		cmp	r1, r2
 784              		.loc 1 111 0
 785 0066 3B60     		str	r3, [r7]
 786 0068 3360     		str	r3, [r6]
 787 006a 2360     		str	r3, [r4]
 788 006c C8F80030 		str	r3, [r8]
 789              		.loc 1 112 0
 790 0070 43D1     		bne	.L111
 791 0072 02B0     		add	sp, sp, #8
 792              		.cfi_remember_state
 793              		.cfi_def_cfa_offset 24
 794              		@ sp needed
 795 0074 BDE8F081 		pop	{r4, r5, r6, r7, r8, pc}
 796              	.LVL87:
 797              	.L86:
 798              		.cfi_restore_state
ARM GAS  C:\Users\alexa\AppData\Local\Temp\ccdrYP8A.s 			page 15


 799              		.loc 1 89 0
 800 0078 A2F12903 		sub	r3, r2, #41
 801 007c 022B     		cmp	r3, #2
 802 007e 07D8     		bhi	.L88
 803              		.loc 1 90 0
 804 0080 224E     		ldr	r6, .L113+12
 805 0082 3368     		ldr	r3, [r6]
 806 0084 33BB     		cbnz	r3, .L103
 807              	.LVL88:
 808              	.L108:
 809 0086 204C     		ldr	r4, .L113+8
 810              	.LVL89:
 811 0088 214F     		ldr	r7, .L113+16
 812 008a DFF88C80 		ldr	r8, .L113+24
 813 008e E6E7     		b	.L87
 814              	.LVL90:
 815              	.L88:
 816              		.loc 1 95 0
 817 0090 A2F12F03 		sub	r3, r2, #47
 818 0094 022B     		cmp	r3, #2
 819 0096 12D9     		bls	.L112
 820              		.loc 1 101 0
 821 0098 353A     		subs	r2, r2, #53
 822 009a 022A     		cmp	r2, #2
 823 009c 1ED8     		bhi	.L90
 824              		.loc 1 102 0
 825 009e DFF87880 		ldr	r8, .L113+24
 826 00a2 D8F80030 		ldr	r3, [r8]
 827 00a6 13B1     		cbz	r3, .L110
 828              		.loc 1 103 0
 829 00a8 0320     		movs	r0, #3
 830 00aa FFF7FEFF 		bl	audio_displacement
 831              	.LVL91:
 832              	.L110:
 833 00ae 164C     		ldr	r4, .L113+8
 834              	.LVL92:
 835 00b0 164E     		ldr	r6, .L113+12
 836 00b2 174F     		ldr	r7, .L113+16
 837 00b4 D3E7     		b	.L87
 838              	.LVL93:
 839              	.L102:
 840              		.loc 1 85 0
 841 00b6 0020     		movs	r0, #0
 842 00b8 FFF7FEFF 		bl	audio_displacement
 843              	.LVL94:
 844 00bc CBE7     		b	.L107
 845              	.LVL95:
 846              	.L112:
 847              		.loc 1 96 0
 848 00be 144F     		ldr	r7, .L113+16
 849 00c0 3B68     		ldr	r3, [r7]
 850 00c2 13B1     		cbz	r3, .L109
 851              		.loc 1 97 0
 852 00c4 0220     		movs	r0, #2
 853 00c6 FFF7FEFF 		bl	audio_displacement
 854              	.LVL96:
 855              	.L109:
ARM GAS  C:\Users\alexa\AppData\Local\Temp\ccdrYP8A.s 			page 16


 856 00ca 0F4C     		ldr	r4, .L113+8
 857              	.LVL97:
 858 00cc 0F4E     		ldr	r6, .L113+12
 859 00ce DFF84880 		ldr	r8, .L113+24
 860 00d2 C4E7     		b	.L87
 861              	.LVL98:
 862              	.L103:
 863              		.loc 1 91 0
 864 00d4 0120     		movs	r0, #1
 865 00d6 FFF7FEFF 		bl	audio_displacement
 866              	.LVL99:
 867 00da D4E7     		b	.L108
 868              	.LVL100:
 869              	.L90:
 870              		.loc 1 107 0
 871 00dc 0020     		movs	r0, #0
 872 00de FFF7FEFF 		bl	left_motor_set_speed
 873              	.LVL101:
 874              		.loc 1 108 0
 875 00e2 0020     		movs	r0, #0
 876 00e4 FFF7FEFF 		bl	right_motor_set_speed
 877              	.LVL102:
 878              		.loc 1 109 0
 879 00e8 0A4B     		ldr	r3, .L113+20
 880 00ea 074C     		ldr	r4, .L113+8
 881              	.LVL103:
 882 00ec 074E     		ldr	r6, .L113+12
 883 00ee 084F     		ldr	r7, .L113+16
 884 00f0 DFF82480 		ldr	r8, .L113+24
 885 00f4 0022     		movs	r2, #0
 886 00f6 1A60     		str	r2, [r3]
 887 00f8 B1E7     		b	.L87
 888              	.L111:
 889              		.loc 1 112 0
 890 00fa FFF7FEFF 		bl	__stack_chk_fail
 891              	.LVL104:
 892              	.L114:
 893 00fe 00BF     		.align	2
 894              	.L113:
 895 0100 00000000 		.word	__stack_chk_guard
 896 0104 00401C46 		.word	1176256512
 897 0108 00000000 		.word	.LANCHOR1
 898 010c 00000000 		.word	.LANCHOR3
 899 0110 00000000 		.word	.LANCHOR4
 900 0114 00000000 		.word	first_stop
 901 0118 00000000 		.word	.LANCHOR2
 902              		.cfi_endproc
 903              	.LFE290:
 904              		.size	sound_remote, .-sound_remote
 905              		.section	.text.processAudioData,"ax",%progbits
 906              		.align	1
 907              		.p2align 4,,15
 908              		.global	processAudioData
 909              		.syntax unified
 910              		.thumb
 911              		.thumb_func
 912              		.fpu fpv4-sp-d16
ARM GAS  C:\Users\alexa\AppData\Local\Temp\ccdrYP8A.s 			page 17


 913              		.type	processAudioData, %function
 914              	processAudioData:
 915              	.LFB291:
 916              		.loc 1 123 0
 917              		.cfi_startproc
 918              		@ args = 0, pretend = 0, frame = 8
 919              		@ frame_needed = 0, uses_anonymous_args = 0
 920              	.LVL105:
 921 0000 2DE9F041 		push	{r4, r5, r6, r7, r8, lr}
 922              		.cfi_def_cfa_offset 24
 923              		.cfi_offset 4, -24
 924              		.cfi_offset 5, -20
 925              		.cfi_offset 6, -16
 926              		.cfi_offset 7, -12
 927              		.cfi_offset 8, -8
 928              		.cfi_offset 14, -4
 929 0004 594C     		ldr	r4, .L149
 930 0006 82B0     		sub	sp, sp, #8
 931              		.cfi_def_cfa_offset 32
 932              		.loc 1 123 0
 933 0008 2368     		ldr	r3, [r4]
 934 000a 0193     		str	r3, [sp, #4]
 935 000c 8046     		mov	r8, r0
 936 000e 0F46     		mov	r7, r1
 937              		.loc 1 135 0
 938 0010 FFF7FEFF 		bl	get_movement
 939              	.LVL106:
 940              		.loc 1 137 0
 941 0014 0028     		cmp	r0, #0
 942 0016 49D0     		beq	.L115
 943              		.loc 1 140 0
 944 0018 554D     		ldr	r5, .L149+4
 945 001a 2B68     		ldr	r3, [r5]
 946 001c 0BB1     		cbz	r3, .L118
 947              		.loc 1 140 0 is_stmt 0 discriminator 1
 948 001e 0728     		cmp	r0, #7
 949 0020 6BD1     		bne	.L144
 950              	.L118:
 951              	.LVL107:
 952 0022 544D     		ldr	r5, .L149+8
 953 0024 2B88     		ldrh	r3, [r5]
 954              	.LBB62:
 955              		.loc 1 147 0 is_stmt 1 discriminator 1
 956 0026 002F     		cmp	r7, #0
 957 0028 00F09580 		beq	.L119
 958              	.LVL108:
 959              	.L147:
 960              		.loc 1 149 0
 961 002c B8F90220 		ldrsh	r2, [r8, #2]
 962 0030 514E     		ldr	r6, .L149+12
 963 0032 07EE902A 		vmov	s15, r2	@ int
 964              		.loc 1 152 0
 965 0036 5A1C     		adds	r2, r3, #1
 966              		.loc 1 149 0
 967 0038 06EB8301 		add	r1, r6, r3, lsl #2
 968              		.loc 1 154 0
 969 003c 92B2     		uxth	r2, r2
ARM GAS  C:\Users\alexa\AppData\Local\Temp\ccdrYP8A.s 			page 18


 970              		.loc 1 156 0
 971 003e 0233     		adds	r3, r3, #2
 972 0040 9BB2     		uxth	r3, r3
 973              		.loc 1 149 0
 974 0042 F8EEE77A 		vcvt.f32.s32	s15, s15
 975              		.loc 1 154 0
 976 0046 06EB8202 		add	r2, r6, r2, lsl #2
 977 004a 4FF0000E 		mov	lr, #0
 978              		.loc 1 159 0
 979 004e B3F5006F 		cmp	r3, #2048
 980              		.loc 1 149 0
 981 0052 C1ED007A 		vstr.32	s15, [r1]
 982              		.loc 1 156 0
 983 0056 2B80     		strh	r3, [r5]	@ movhi
 984              		.loc 1 154 0
 985 0058 C2F800E0 		str	lr, [r2]	@ float
 986              		.loc 1 159 0
 987 005c 2ED2     		bcs	.L120
 988 005e 791E     		subs	r1, r7, #1
 989 0060 C1F38D01 		ubfx	r1, r1, #2, #14
 990 0064 4046     		mov	r0, r8
 991 0066 08EBC101 		add	r1, r8, r1, lsl #3
 992 006a 0027     		movs	r7, #0
 993 006c 1AE0     		b	.L121
 994              	.LVL109:
 995              	.L123:
 996              		.loc 1 149 0
 997 006e B0F90A20 		ldrsh	r2, [r0, #10]
 998 0072 07EE902A 		vmov	s15, r2	@ int
 999              		.loc 1 154 0
 1000 0076 5A1C     		adds	r2, r3, #1
 1001 0078 92B2     		uxth	r2, r2
 1002              		.loc 1 156 0
 1003 007a 03F1020C 		add	ip, r3, #2
 1004              		.loc 1 149 0
 1005 007e 06EB8307 		add	r7, r6, r3, lsl #2
 1006 0082 F8EEE77A 		vcvt.f32.s32	s15, s15
 1007              		.loc 1 154 0
 1008 0086 06EB8202 		add	r2, r6, r2, lsl #2
 1009              		.loc 1 156 0
 1010 008a 1FFA8CF3 		uxth	r3, ip
 1011              		.loc 1 159 0
 1012 008e B3F5006F 		cmp	r3, #2048
 1013              		.loc 1 149 0
 1014 0092 C7ED007A 		vstr.32	s15, [r7]
 1015 0096 00F10800 		add	r0, r0, #8
 1016 009a 4FF00107 		mov	r7, #1
 1017              		.loc 1 154 0
 1018 009e C2F800E0 		str	lr, [r2]	@ float
 1019              		.loc 1 159 0
 1020 00a2 0AD2     		bcs	.L122
 1021              	.L121:
 1022              		.loc 1 147 0 discriminator 2
 1023 00a4 8842     		cmp	r0, r1
 1024 00a6 E2D1     		bne	.L123
 1025 00a8 002F     		cmp	r7, #0
 1026 00aa 5DD1     		bne	.L145
ARM GAS  C:\Users\alexa\AppData\Local\Temp\ccdrYP8A.s 			page 19


 1027              	.L115:
 1028              	.LBE62:
 1029              		.loc 1 196 0
 1030 00ac 019A     		ldr	r2, [sp, #4]
 1031 00ae 2368     		ldr	r3, [r4]
 1032 00b0 9A42     		cmp	r2, r3
 1033 00b2 57D1     		bne	.L143
 1034 00b4 02B0     		add	sp, sp, #8
 1035              		.cfi_remember_state
 1036              		.cfi_def_cfa_offset 24
 1037              		@ sp needed
 1038 00b6 BDE8F081 		pop	{r4, r5, r6, r7, r8, pc}
 1039              	.LVL110:
 1040              	.L122:
 1041              		.cfi_restore_state
 1042 00ba 2B80     		strh	r3, [r5]	@ movhi
 1043              	.L120:
 1044              		.loc 1 171 0
 1045 00bc 2E49     		ldr	r1, .L149+12
 1046              		.loc 1 184 0
 1047 00be 2F4E     		ldr	r6, .L149+16
 1048              		.loc 1 171 0
 1049 00c0 4FF48060 		mov	r0, #1024
 1050 00c4 FFF7FEFF 		bl	doFFT_optimized
 1051              	.LVL111:
 1052              		.loc 1 179 0
 1053 00c8 4FF48062 		mov	r2, #1024
 1054 00cc 2C49     		ldr	r1, .L149+20
 1055 00ce 2A48     		ldr	r0, .L149+12
 1056 00d0 FFF7FEFF 		bl	arm_cmplx_mag_f32
 1057              	.LVL112:
 1058              		.loc 1 184 0
 1059 00d4 3378     		ldrb	r3, [r6]	@ zero_extendqisi2
 1060 00d6 082B     		cmp	r3, #8
 1061 00d8 19D8     		bhi	.L146
 1062 00da 0133     		adds	r3, r3, #1
 1063 00dc DBB2     		uxtb	r3, r3
 1064              	.L125:
 1065              		.loc 1 192 0
 1066 00de 0199     		ldr	r1, [sp, #4]
 1067 00e0 2268     		ldr	r2, [r4]
 1068              		.loc 1 190 0
 1069 00e2 3370     		strb	r3, [r6]
 1070              		.loc 1 192 0
 1071 00e4 9142     		cmp	r1, r2
 1072              		.loc 1 189 0
 1073 00e6 4FF00003 		mov	r3, #0
 1074 00ea 2B80     		strh	r3, [r5]	@ movhi
 1075              		.loc 1 192 0
 1076 00ec 3AD1     		bne	.L143
 1077 00ee 2448     		ldr	r0, .L149+20
 1078              		.loc 1 196 0
 1079 00f0 02B0     		add	sp, sp, #8
 1080              		.cfi_remember_state
 1081              		.cfi_def_cfa_offset 24
 1082              		@ sp needed
 1083 00f2 BDE8F041 		pop	{r4, r5, r6, r7, r8, lr}
ARM GAS  C:\Users\alexa\AppData\Local\Temp\ccdrYP8A.s 			page 20


 1084              		.cfi_restore 14
 1085              		.cfi_restore 8
 1086              		.cfi_restore 7
 1087              		.cfi_restore 6
 1088              		.cfi_restore 5
 1089              		.cfi_restore 4
 1090              		.cfi_def_cfa_offset 0
 1091              	.LVL113:
 1092              		.loc 1 192 0
 1093 00f6 FFF7FEBF 		b	sound_remote
 1094              	.LVL114:
 1095              	.L144:
 1096              		.cfi_restore_state
 1097              		.loc 1 141 0
 1098 00fa 0420     		movs	r0, #4
 1099              	.LVL115:
 1100 00fc FFF7FEFF 		bl	audio_displacement
 1101              	.LVL116:
 1102              		.loc 1 142 0
 1103 0100 0023     		movs	r3, #0
 1104 0102 2B60     		str	r3, [r5]
 1105              	.LVL117:
 1106 0104 1B4D     		ldr	r5, .L149+8
 1107 0106 2B88     		ldrh	r3, [r5]
 1108              	.LBB63:
 1109              		.loc 1 147 0
 1110 0108 002F     		cmp	r7, #0
 1111 010a 8FD1     		bne	.L147
 1112 010c 23E0     		b	.L119
 1113              	.LVL118:
 1114              	.L146:
 1115              	.LBE63:
 1116              	.LBB64:
 1117              	.LBB65:
 1118              	.LBB66:
 1119              	.LBB67:
 1120              	.LBB68:
 1121              	.LBB69:
 1122              	.LBB70:
 1123              		.file 3 "../../lib/e-puck2_main-processor/ChibiOS//os/ext/CMSIS/include/core_cmFunc.h"
 1124              		.loc 3 546 0
 1125 010e 2023     		movs	r3, #32
 1126              		.syntax unified
 1127              	@ 546 "../../lib/e-puck2_main-processor/ChibiOS//os/ext/CMSIS/include/core_cmFunc.h" 1
 1128 0110 83F31188 		MSR basepri, r3
 1129              	@ 0 "" 2
 1130              	.LVL119:
 1131              		.thumb
 1132              		.syntax unified
 1133              	.LBE70:
 1134              	.LBE69:
 1135              	.LBE68:
 1136              		.file 4 "../../lib/e-puck2_main-processor/ChibiOS//os/rt/include/chsys.h"
 1137              		.loc 4 349 0
 1138 0114 FFF7FEFF 		bl	_stats_start_measure_crit_thd
 1139              	.LVL120:
 1140              		.loc 4 350 0
ARM GAS  C:\Users\alexa\AppData\Local\Temp\ccdrYP8A.s 			page 21


 1141 0118 FFF7FEFF 		bl	_dbg_check_lock
 1142              	.LVL121:
 1143              	.LBE67:
 1144              	.LBE66:
 1145              	.LBB71:
 1146              	.LBB72:
 1147              		.loc 2 268 0
 1148 011c FFF7FEFF 		bl	chDbgCheckClassI
 1149              	.LVL122:
 1150              		.loc 2 270 0
 1151 0120 1848     		ldr	r0, .L149+24
 1152 0122 8368     		ldr	r3, [r0, #8]
 1153 0124 002B     		cmp	r3, #0
 1154 0126 1ADD     		ble	.L148
 1155              	.L126:
 1156              	.LVL123:
 1157              	.LBE72:
 1158              	.LBE71:
 1159              		.loc 2 286 0
 1160 0128 FFF7FEFF 		bl	chSchRescheduleS
 1161              	.LVL124:
 1162              	.LBB74:
 1163              	.LBB75:
 1164              		.loc 4 360 0
 1165 012c FFF7FEFF 		bl	_dbg_check_unlock
 1166              	.LVL125:
 1167              		.loc 4 361 0
 1168 0130 FFF7FEFF 		bl	_stats_stop_measure_crit_thd
 1169              	.LVL126:
 1170              		.loc 4 367 0
 1171 0134 144B     		ldr	r3, .L149+28
 1172 0136 1A68     		ldr	r2, [r3]
 1173 0138 9A42     		cmp	r2, r3
 1174 013a 07D0     		beq	.L127
 1175 013c 9969     		ldr	r1, [r3, #24]
 1176 013e 9368     		ldr	r3, [r2, #8]
 1177 0140 8A68     		ldr	r2, [r1, #8]
 1178 0142 9A42     		cmp	r2, r3
 1179 0144 02D2     		bcs	.L127
 1180 0146 1148     		ldr	r0, .L149+32
 1181 0148 FFF7FEFF 		bl	chSysHalt
 1182              	.LVL127:
 1183              	.L127:
 1184              	.LBB76:
 1185              	.LBB77:
 1186              	.LBB78:
 1187              		.loc 3 546 0
 1188 014c 0023     		movs	r3, #0
 1189              		.syntax unified
 1190              	@ 546 "../../lib/e-puck2_main-processor/ChibiOS//os/ext/CMSIS/include/core_cmFunc.h" 1
 1191 014e 83F31188 		MSR basepri, r3
 1192              	@ 0 "" 2
 1193              	.LVL128:
 1194              		.thumb
 1195              		.syntax unified
 1196 0152 0123     		movs	r3, #1
 1197 0154 C3E7     		b	.L125
ARM GAS  C:\Users\alexa\AppData\Local\Temp\ccdrYP8A.s 			page 22


 1198              	.LVL129:
 1199              	.L119:
 1200              	.LBE78:
 1201              	.LBE77:
 1202              	.LBE76:
 1203              	.LBE75:
 1204              	.LBE74:
 1205              	.LBE65:
 1206              	.LBE64:
 1207              		.loc 1 164 0
 1208 0156 B3F5006F 		cmp	r3, #2048
 1209 015a A7D3     		bcc	.L115
 1210 015c AEE7     		b	.L120
 1211              	.LVL130:
 1212              	.L148:
 1213              	.LBB81:
 1214              	.LBB80:
 1215              	.LBB79:
 1216              	.LBB73:
 1217              		.loc 2 271 0
 1218 015e FFF7FEFF 		bl	chSemSignalI
 1219              	.LVL131:
 1220 0162 E1E7     		b	.L126
 1221              	.LVL132:
 1222              	.L143:
 1223              	.LBE73:
 1224              	.LBE79:
 1225              	.LBE80:
 1226              	.LBE81:
 1227              		.loc 1 196 0
 1228 0164 FFF7FEFF 		bl	__stack_chk_fail
 1229              	.LVL133:
 1230              	.L145:
 1231 0168 2B80     		strh	r3, [r5]	@ movhi
 1232 016a 9FE7     		b	.L115
 1233              	.L150:
 1234              		.align	2
 1235              	.L149:
 1236 016c 00000000 		.word	__stack_chk_guard
 1237 0170 00000000 		.word	first_stop
 1238 0174 00000000 		.word	.LANCHOR5
 1239 0178 00000000 		.word	micLeft_cmplx_input
 1240 017c 00000000 		.word	.LANCHOR7
 1241 0180 00000000 		.word	micLeft_output
 1242 0184 00000000 		.word	.LANCHOR0
 1243 0188 00000000 		.word	ch
 1244 018c 00000000 		.word	.LANCHOR6
 1245              		.cfi_endproc
 1246              	.LFE291:
 1247              		.size	processAudioData, .-processAudioData
 1248              		.section	.bss.backward,"aw",%nobits
 1249              		.align	2
 1250              		.set	.LANCHOR2,. + 0
 1251              		.type	backward, %object
 1252              		.size	backward, 4
 1253              	backward:
 1254 0000 00000000 		.space	4
ARM GAS  C:\Users\alexa\AppData\Local\Temp\ccdrYP8A.s 			page 23


 1255              		.section	.bss.forward,"aw",%nobits
 1256              		.align	2
 1257              		.set	.LANCHOR1,. + 0
 1258              		.type	forward, %object
 1259              		.size	forward, 4
 1260              	forward:
 1261 0000 00000000 		.space	4
 1262              		.section	.bss.left,"aw",%nobits
 1263              		.align	2
 1264              		.set	.LANCHOR3,. + 0
 1265              		.type	left, %object
 1266              		.size	left, 4
 1267              	left:
 1268 0000 00000000 		.space	4
 1269              		.section	.bss.micLeft_cmplx_input,"aw",%nobits
 1270              		.align	2
 1271              		.type	micLeft_cmplx_input, %object
 1272              		.size	micLeft_cmplx_input, 8192
 1273              	micLeft_cmplx_input:
 1274 0000 00000000 		.space	8192
 1274      00000000 
 1274      00000000 
 1274      00000000 
 1274      00000000 
 1275              		.section	.bss.micLeft_output,"aw",%nobits
 1276              		.align	2
 1277              		.type	micLeft_output, %object
 1278              		.size	micLeft_output, 4096
 1279              	micLeft_output:
 1280 0000 00000000 		.space	4096
 1280      00000000 
 1280      00000000 
 1280      00000000 
 1280      00000000 
 1281              		.section	.bss.mustSend.14246,"aw",%nobits
 1282              		.set	.LANCHOR7,. + 0
 1283              		.type	mustSend.14246, %object
 1284              		.size	mustSend.14246, 1
 1285              	mustSend.14246:
 1286 0000 00       		.space	1
 1287              		.section	.bss.nb_samples.14245,"aw",%nobits
 1288              		.align	1
 1289              		.set	.LANCHOR5,. + 0
 1290              		.type	nb_samples.14245, %object
 1291              		.size	nb_samples.14245, 2
 1292              	nb_samples.14245:
 1293 0000 0000     		.space	2
 1294              		.section	.bss.right,"aw",%nobits
 1295              		.align	2
 1296              		.set	.LANCHOR4,. + 0
 1297              		.type	right, %object
 1298              		.size	right, 4
 1299              	right:
 1300 0000 00000000 		.space	4
 1301              		.section	.data.sendToComputer_sem,"aw",%progbits
 1302              		.align	2
 1303              		.set	.LANCHOR0,. + 0
ARM GAS  C:\Users\alexa\AppData\Local\Temp\ccdrYP8A.s 			page 24


 1304              		.type	sendToComputer_sem, %object
 1305              		.size	sendToComputer_sem, 12
 1306              	sendToComputer_sem:
 1307 0000 00000000 		.word	sendToComputer_sem
 1308 0004 00000000 		.word	sendToComputer_sem
 1309 0008 00000000 		.word	0
 1310              		.section	.rodata.__func__.7153,"a",%progbits
 1311              		.align	2
 1312              		.set	.LANCHOR6,. + 0
 1313              		.type	__func__.7153, %object
 1314              		.size	__func__.7153, 12
 1315              	__func__.7153:
 1316 0000 63685379 		.ascii	"chSysUnlock\000"
 1316      73556E6C 
 1316      6F636B00 
 1317              		.text
 1318              	.Letext0:
 1319              		.file 5 "c:\\users\\alexa\\downloads\\programmes\\eclipse_e-puck2\\tools\\gcc-arm-none-eabi-7-2017
 1320              		.file 6 "c:\\users\\alexa\\downloads\\programmes\\eclipse_e-puck2\\tools\\gcc-arm-none-eabi-7-2017
 1321              		.file 7 "c:\\users\\alexa\\downloads\\programmes\\eclipse_e-puck2\\tools\\gcc-arm-none-eabi-7-2017
 1322              		.file 8 "../../lib/e-puck2_main-processor/ChibiOS//os/rt/ports/ARMCMx/compilers/GCC/chtypes.h"
 1323              		.file 9 "../../lib/e-puck2_main-processor/ChibiOS//os/rt/include/chsystypes.h"
 1324              		.file 10 "../../lib/e-puck2_main-processor/ChibiOS//os/rt/include/chschd.h"
 1325              		.file 11 "../../lib/e-puck2_main-processor/ChibiOS//os/ext/CMSIS/include/core_cm4.h"
 1326              		.file 12 "../../lib/e-puck2_main-processor/ChibiOS//os/ext/CMSIS/ST/system_stm32f4xx.h"
 1327              		.file 13 "../../lib/e-puck2_main-processor/ChibiOS//os/ext/CMSIS/ST/stm32f407xx.h"
 1328              		.file 14 "../../lib/e-puck2_main-processor/ChibiOS//os/rt/ports/ARMCMx/chcore.h"
 1329              		.file 15 "../../lib/e-puck2_main-processor/ChibiOS//os/rt/ports/ARMCMx/chcore_v7m.h"
 1330              		.file 16 "../../lib/e-puck2_main-processor/ChibiOS//os/rt/include/chdebug.h"
 1331              		.file 17 "../../lib/e-puck2_main-processor/ChibiOS//os/rt/include/chtm.h"
 1332              		.file 18 "../../lib/e-puck2_main-processor/ChibiOS//os/rt/include/chstats.h"
 1333              		.file 19 "../../lib/e-puck2_main-processor/ChibiOS//os/rt/include/chsem.h"
 1334              		.file 20 "../../lib/e-puck2_main-processor/ChibiOS//os/rt/include/chmtx.h"
 1335              		.file 21 "../../lib/e-puck2_main-processor/ChibiOS//os/rt/include/chregistry.h"
 1336              		.file 22 "../../lib/e-puck2_main-processor/ChibiOS//os/rt/include/chevents.h"
 1337              		.file 23 "../../lib/e-puck2_main-processor/ChibiOS//os/rt/include/chqueues.h"
 1338              		.file 24 "../../lib/e-puck2_main-processor/ChibiOS//os/hal/ports/STM32/STM32F4xx/stm32_dma.h"
 1339              		.file 25 "../../lib/e-puck2_main-processor/ChibiOS//os/ext/CMSIS/ST/stm32f4xx.h"
 1340              		.file 26 "../../lib/e-puck2_main-processor/ChibiOS//os/hal/include/hal_ioblock.h"
 1341              		.file 27 "../../lib/e-puck2_main-processor/ChibiOS//os/hal/ports/STM32/LLD/GPIOv2/pal_lld.h"
 1342              		.file 28 "../../lib/e-puck2_main-processor/ChibiOS//os/hal/include/adc.h"
 1343              		.file 29 "../../lib/e-puck2_main-processor/ChibiOS//os/hal/ports/STM32/STM32F4xx/adc_lld.h"
 1344              		.file 30 "../../lib/e-puck2_main-processor/ChibiOS//os/hal/include/can.h"
 1345              		.file 31 "../../lib/e-puck2_main-processor/ChibiOS//os/hal/ports/STM32/LLD/can_lld.h"
 1346              		.file 32 "../../lib/e-puck2_main-processor/ChibiOS//os/hal/include/dac.h"
 1347              		.file 33 "../../lib/e-puck2_main-processor/ChibiOS//os/hal/ports/STM32/LLD/DACv1/dac_lld.h"
 1348              		.file 34 "../../lib/e-puck2_main-processor/ChibiOS//os/hal/include/ext.h"
 1349              		.file 35 "../../lib/e-puck2_main-processor/ChibiOS//os/hal/ports/STM32/LLD/ext_lld.h"
 1350              		.file 36 "../../lib/e-puck2_main-processor/ChibiOS//os/hal/include/gpt.h"
 1351              		.file 37 "../../lib/e-puck2_main-processor/ChibiOS//os/hal/ports/STM32/LLD/TIMv1/gpt_lld.h"
 1352              		.file 38 "../../lib/e-puck2_main-processor/ChibiOS//os/hal/ports/STM32/LLD/TIMv1/stm32_tim.h"
 1353              		.file 39 "../../lib/e-puck2_main-processor/ChibiOS//os/hal/include/i2c.h"
 1354              		.file 40 "../../lib/e-puck2_main-processor/ChibiOS//os/hal/ports/STM32/LLD/I2Cv1/i2c_lld.h"
 1355              		.file 41 "../../lib/e-puck2_main-processor/ChibiOS//os/hal/include/i2s.h"
 1356              		.file 42 "../../lib/e-puck2_main-processor/ChibiOS//os/hal/ports/STM32/LLD/SPIv1/i2s_lld.h"
 1357              		.file 43 "../../lib/e-puck2_main-processor/ChibiOS//os/hal/include/pwm.h"
 1358              		.file 44 "../../lib/e-puck2_main-processor/ChibiOS//os/hal/ports/STM32/LLD/TIMv1/pwm_lld.h"
ARM GAS  C:\Users\alexa\AppData\Local\Temp\ccdrYP8A.s 			page 25


 1359              		.file 45 "../../lib/e-puck2_main-processor/ChibiOS//os/hal/include/serial.h"
 1360              		.file 46 "../../lib/e-puck2_main-processor/ChibiOS//os/hal/ports/STM32/LLD/USARTv1/serial_lld.h"
 1361              		.file 47 "../../lib/e-puck2_main-processor/ChibiOS//os/hal/include/sdc.h"
 1362              		.file 48 "../../lib/e-puck2_main-processor/ChibiOS//os/hal/ports/STM32/LLD/sdc_lld.h"
 1363              		.file 49 "../../lib/e-puck2_main-processor/ChibiOS//os/hal/include/spi.h"
 1364              		.file 50 "../../lib/e-puck2_main-processor/ChibiOS//os/hal/ports/STM32/LLD/SPIv1/spi_lld.h"
 1365              		.file 51 "../../lib/e-puck2_main-processor/ChibiOS//os/hal/include/usb.h"
 1366              		.file 52 "../../lib/e-puck2_main-processor/ChibiOS//os/hal/ports/STM32/LLD/OTGv1/usb_lld.h"
 1367              		.file 53 "../../lib/e-puck2_main-processor/ChibiOS//os/hal/ports/STM32/LLD/OTGv1/stm32_otg.h"
 1368              		.file 54 "../../lib/e-puck2_main-processor/ChibiOS//os/hal/include/serial_usb.h"
 1369              		.file 55 "../../lib/e-puck2_main-processor/ChibiOS_ext/os/hal/include/../ports/STM32/STM32F4xx/dcm
 1370              		.file 56 "c:\\users\\alexa\\downloads\\programmes\\eclipse_e-puck2\\tools\\gcc-arm-none-eabi-7-201
 1371              		.file 57 "c:\\users\\alexa\\downloads\\programmes\\eclipse_e-puck2\\tools\\gcc-arm-none-eabi-7-201
 1372              		.file 58 "c:\\users\\alexa\\downloads\\programmes\\eclipse_e-puck2\\tools\\gcc-arm-none-eabi-7-201
 1373              		.file 59 "c:\\users\\alexa\\downloads\\programmes\\eclipse_e-puck2\\tools\\gcc-arm-none-eabi-7-201
 1374              		.file 60 "../../lib/e-puck2_main-processor/src/msgbus/messagebus.h"
 1375              		.file 61 "c:\\users\\alexa\\downloads\\programmes\\eclipse_e-puck2\\tools\\gcc-arm-none-eabi-7-201
 1376              		.file 62 "c:\\users\\alexa\\downloads\\programmes\\eclipse_e-puck2\\tools\\gcc-arm-none-eabi-7-201
 1377              		.file 63 "../../lib/e-puck2_main-processor/src/parameter/parameter.h"
 1378              		.file 64 "./main.h"
 1379              		.file 65 "../../lib/e-puck2_main-processor/src/usbcfg.h"
 1380              		.file 66 "../../lib/e-puck2_main-processor/src/leds.h"
 1381              		.file 67 "./audio_processing.h"
 1382              		.file 68 "c:\\users\\alexa\\downloads\\programmes\\eclipse_e-puck2\\tools\\gcc-arm-none-eabi-7-201
 1383              		.file 69 "../../lib/e-puck2_main-processor/src/motors.h"
 1384              		.file 70 "./ir_processing.h"
 1385              		.file 71 "./fft.h"
 1386              		.file 72 "../../lib/e-puck2_main-processor/ChibiOS//os/ext/CMSIS/include/arm_math.h"