ARM GAS  C:\Users\alexa\AppData\Local\Temp\ccGX04Fc.s 			page 1


   1              		.cpu cortex-m4
   2              		.eabi_attribute 27, 1
   3              		.eabi_attribute 28, 1
   4              		.eabi_attribute 20, 1
   5              		.eabi_attribute 21, 1
   6              		.eabi_attribute 23, 3
   7              		.eabi_attribute 24, 1
   8              		.eabi_attribute 25, 1
   9              		.eabi_attribute 26, 1
  10              		.eabi_attribute 30, 2
  11              		.eabi_attribute 34, 1
  12              		.eabi_attribute 18, 4
  13              		.file	"fft.c"
  14              		.text
  15              	.Ltext0:
  16              		.cfi_sections	.debug_frame
  17              		.global	__aeabi_f2d
  18              		.global	__aeabi_d2f
  19              		.section	.text.fft_c,"ax",%progbits
  20              		.align	1
  21              		.p2align 4,,15
  22              		.global	fft_c
  23              		.syntax unified
  24              		.thumb
  25              		.thumb_func
  26              		.fpu fpv4-sp-d16
  27              		.type	fft_c, %function
  28              	fft_c:
  29              	.LFB289:
  30              		.file 1 "fft.c"
  31              		.loc 1 25 0
  32              		.cfi_startproc
  33              		@ args = 0, pretend = 0, frame = 16
  34              		@ frame_needed = 0, uses_anonymous_args = 0
  35              	.LVL0:
  36 0000 2DE9F04F 		push	{r4, r5, r6, r7, r8, r9, r10, fp, lr}
  37              		.cfi_def_cfa_offset 36
  38              		.cfi_offset 4, -36
  39              		.cfi_offset 5, -32
  40              		.cfi_offset 6, -28
  41              		.cfi_offset 7, -24
  42              		.cfi_offset 8, -20
  43              		.cfi_offset 9, -16
  44              		.cfi_offset 10, -12
  45              		.cfi_offset 11, -8
  46              		.cfi_offset 14, -4
  47 0004 2DED068B 		vpush.64	{d8, d9, d10}
  48              		.cfi_def_cfa_offset 60
  49              		.cfi_offset 80, -60
  50              		.cfi_offset 81, -56
  51              		.cfi_offset 82, -52
  52              		.cfi_offset 83, -48
  53              		.cfi_offset 84, -44
  54              		.cfi_offset 85, -40
  55 0008 5F4B     		ldr	r3, .L25
  56 000a 85B0     		sub	sp, sp, #20
  57              		.cfi_def_cfa_offset 80
ARM GAS  C:\Users\alexa\AppData\Local\Temp\ccGX04Fc.s 			page 2


  58              		.loc 1 25 0
  59 000c 1B68     		ldr	r3, [r3]
  60 000e 0393     		str	r3, [sp, #12]
  61              	.LVL1:
  62              		.loc 1 36 0
  63 0010 051E     		subs	r5, r0, #0
  64              		.loc 1 25 0
  65 0012 0191     		str	r1, [sp, #4]
  66              		.loc 1 36 0
  67 0014 26DD     		ble	.L2
  68              		.loc 1 32 0
  69 0016 0022     		movs	r2, #0
  70 0018 8846     		mov	r8, r1
  71              		.loc 1 36 0
  72 001a 1046     		mov	r0, r2
  73              	.LVL2:
  74              		.loc 1 46 0
  75 001c 6C10     		asrs	r4, r5, #1
  76              		.loc 1 49 0
  77 001e AE10     		asrs	r6, r5, #2
  78              	.LVL3:
  79              	.L7:
  80              		.loc 1 37 0
  81 0020 9042     		cmp	r0, r2
  82 0022 0DDC     		bgt	.L3
  83              		.loc 1 39 0
  84 0024 08EBC203 		add	r3, r8, r2, lsl #3
  85              		.loc 1 41 0
  86 0028 0F68     		ldr	r7, [r1]	@ float
  87              		.loc 1 39 0
  88 002a D3F800C0 		ldr	ip, [r3]	@ float
  89              	.LVL4:
  90              		.loc 1 41 0
  91 002e 1F60     		str	r7, [r3]	@ float
  92              		.loc 1 42 0
  93 0030 D1F804E0 		ldr	lr, [r1, #4]	@ float
  94              		.loc 1 40 0
  95 0034 5F68     		ldr	r7, [r3, #4]	@ float
  96              	.LVL5:
  97              		.loc 1 42 0
  98 0036 C3F804E0 		str	lr, [r3, #4]	@ float
  99              		.loc 1 43 0
 100 003a C1F800C0 		str	ip, [r1]	@ float
 101              		.loc 1 44 0
 102 003e 4F60     		str	r7, [r1, #4]	@ float
 103              	.LVL6:
 104              	.L3:
 105              		.loc 1 47 0
 106 0040 9442     		cmp	r4, r2
 107 0042 00F39580 		bgt	.L13
 108              		.loc 1 48 0
 109 0046 121B     		subs	r2, r2, r4
 110              	.LVL7:
 111              		.loc 1 50 0
 112 0048 3346     		mov	r3, r6
 113 004a 1EB9     		cbnz	r6, .L5
 114 004c 04E0     		b	.L4
ARM GAS  C:\Users\alexa\AppData\Local\Temp\ccGX04Fc.s 			page 3


 115              	.LVL8:
 116              	.L6:
 117              		.loc 1 48 0
 118 004e D21A     		subs	r2, r2, r3
 119              	.LVL9:
 120              		.loc 1 50 0
 121 0050 5B10     		asrs	r3, r3, #1
 122              	.LVL10:
 123 0052 01D0     		beq	.L4
 124              	.LVL11:
 125              	.L5:
 126              		.loc 1 47 0
 127 0054 9342     		cmp	r3, r2
 128 0056 FADD     		ble	.L6
 129              	.LVL12:
 130              	.L4:
 131              		.loc 1 36 0 discriminator 2
 132 0058 0130     		adds	r0, r0, #1
 133              	.LVL13:
 134 005a 8542     		cmp	r5, r0
 135              		.loc 1 53 0 discriminator 2
 136 005c 1A44     		add	r2, r2, r3
 137              	.LVL14:
 138 005e 01F10801 		add	r1, r1, #8
 139              		.loc 1 36 0 discriminator 2
 140 0062 DDD1     		bne	.L7
 141              	.LVL15:
 142              	.L2:
 143              		.loc 1 62 0
 144 0064 DFED497A 		vldr.32	s15, .L25+4
 145              		.loc 1 33 0
 146 0068 4FF0010A 		mov	r10, #1
 147              		.loc 1 62 0
 148 006c 60EE278A 		vmul.f32	s17, s0, s15
 149              		.loc 1 33 0
 150 0070 D346     		mov	fp, r10
 151              	.LVL16:
 152              	.L11:
 153 0072 07EE90BA 		vmov	s15, fp	@ int
 154 0076 CBEB4B78 		rsb	r8, fp, fp, lsl #29
 155 007a 019B     		ldr	r3, [sp, #4]
 156 007c 4FEAC808 		lsl	r8, r8, #3
 157 0080 B8EEE78A 		vcvt.f32.s32	s16, s15
 158 0084 08F10409 		add	r9, r8, #4
 159              		.loc 1 58 0
 160 0088 4FEA4B07 		lsl	r7, fp, #1
 161              	.LVL17:
 162 008c 03EBCB0A 		add	r10, r3, fp, lsl #3
 163 0090 4FEA0B14 		lsl	r4, fp, #4
 164              		.loc 1 60 0
 165 0094 0026     		movs	r6, #0
 166              	.LVL18:
 167              	.L10:
 168              		.loc 1 62 0
 169 0096 07EE906A 		vmov	s15, r6	@ int
 170 009a F8EEE77A 		vcvt.f32.s32	s15, s15
 171 009e 67EEA87A 		vmul.f32	s15, s15, s17
ARM GAS  C:\Users\alexa\AppData\Local\Temp\ccGX04Fc.s 			page 4


 172              		.loc 1 63 0
 173 00a2 C7EE887A 		vdiv.f32	s15, s15, s16
 174              	.LVL19:
 175 00a6 17EE900A 		vmov	r0, s15
 176 00aa FFF7FEFF 		bl	__aeabi_f2d
 177              	.LVL20:
 178 00ae 41EC100B 		vmov	d0, r0, r1
 179 00b2 41EC1A0B 		vmov	d10, r0, r1
 180 00b6 FFF7FEFF 		bl	cos
 181              	.LVL21:
 182 00ba 51EC100B 		vmov	r0, r1, d0
 183 00be FFF7FEFF 		bl	__aeabi_d2f
 184              	.LVL22:
 185              		.loc 1 64 0
 186 00c2 B0EE4A0A 		vmov.f32	s0, s20
 187 00c6 F0EE6A0A 		vmov.f32	s1, s21
 188              		.loc 1 63 0
 189 00ca 09EE100A 		vmov	s18, r0
 190              	.LVL23:
 191              		.loc 1 64 0
 192 00ce FFF7FEFF 		bl	sin
 193              	.LVL24:
 194 00d2 51EC100B 		vmov	r0, r1, d0
 195 00d6 FFF7FEFF 		bl	__aeabi_d2f
 196              	.LVL25:
 197              		.loc 1 66 0
 198 00da B542     		cmp	r5, r6
 199              		.loc 1 64 0
 200 00dc 05EE900A 		vmov	s11, r0
 201              	.LVL26:
 202              		.loc 1 66 0
 203 00e0 32DD     		ble	.L8
 204 00e2 08EB0A02 		add	r2, r8, r10
 205 00e6 0AF10400 		add	r0, r10, #4
 206              	.LVL27:
 207 00ea 09EB0A03 		add	r3, r9, r10
 208 00ee 5146     		mov	r1, r10
 209 00f0 B446     		mov	ip, r6
 210              	.LVL28:
 211              	.L9:
 212              		.loc 1 67 0 discriminator 3
 213 00f2 D1ED017A 		vldr.32	s15, [r1, #4]
 214 00f6 10ED016A 		vldr.32	s12, [r0, #-4]
 215              		.loc 1 69 0 discriminator 3
 216 00fa 53ED016A 		vldr.32	s13, [r3, #-4]
 217              		.loc 1 67 0 discriminator 3
 218 00fe 27EEE57A 		vnmul.f32	s14, s15, s11
 219              		.loc 1 68 0 discriminator 3
 220 0102 69EE277A 		vmul.f32	s15, s18, s15
 221              		.loc 1 67 0 discriminator 3
 222 0106 A9EE067A 		vfma.f32	s14, s18, s12
 223              	.LVL29:
 224              		.loc 1 66 0 discriminator 3
 225 010a BC44     		add	ip, ip, r7
 226              	.LVL30:
 227 010c 6545     		cmp	r5, ip
 228              		.loc 1 68 0 discriminator 3
ARM GAS  C:\Users\alexa\AppData\Local\Temp\ccGX04Fc.s 			page 5


 229 010e E5EE867A 		vfma.f32	s15, s11, s12
 230              	.LVL31:
 231              		.loc 1 69 0 discriminator 3
 232 0112 76EEC76A 		vsub.f32	s13, s13, s14
 233 0116 40ED016A 		vstr.32	s13, [r0, #-4]
 234              		.loc 1 70 0 discriminator 3
 235 011a D2ED016A 		vldr.32	s13, [r2, #4]
 236 011e 76EEE76A 		vsub.f32	s13, s13, s15
 237 0122 2044     		add	r0, r0, r4
 238 0124 C1ED016A 		vstr.32	s13, [r1, #4]
 239              		.loc 1 71 0 discriminator 3
 240 0128 53ED016A 		vldr.32	s13, [r3, #-4]
 241 012c 36EE877A 		vadd.f32	s14, s13, s14
 242              	.LVL32:
 243 0130 2144     		add	r1, r1, r4
 244 0132 03ED017A 		vstr.32	s14, [r3, #-4]
 245              		.loc 1 72 0 discriminator 3
 246 0136 92ED017A 		vldr.32	s14, [r2, #4]
 247 013a 77EE277A 		vadd.f32	s15, s14, s15
 248              	.LVL33:
 249 013e 2344     		add	r3, r3, r4
 250 0140 C2ED017A 		vstr.32	s15, [r2, #4]
 251 0144 2244     		add	r2, r2, r4
 252              		.loc 1 66 0 discriminator 3
 253 0146 D4DC     		bgt	.L9
 254              	.LVL34:
 255              	.L8:
 256              		.loc 1 60 0
 257 0148 0136     		adds	r6, r6, #1
 258              	.LVL35:
 259 014a B345     		cmp	fp, r6
 260 014c 0AF1080A 		add	r10, r10, #8
 261 0150 A1D1     		bne	.L10
 262              	.LVL36:
 263              		.loc 1 76 0
 264 0152 BD42     		cmp	r5, r7
 265 0154 BB46     		mov	fp, r7
 266 0156 8CDC     		bgt	.L11
 267              		.loc 1 79 0
 268 0158 0B4B     		ldr	r3, .L25
 269 015a 039A     		ldr	r2, [sp, #12]
 270 015c 1B68     		ldr	r3, [r3]
 271 015e 9A42     		cmp	r2, r3
 272 0160 4FF00000 		mov	r0, #0
 273 0164 0DD1     		bne	.L24
 274 0166 05B0     		add	sp, sp, #20
 275              		.cfi_remember_state
 276              		.cfi_def_cfa_offset 60
 277              		@ sp needed
 278 0168 BDEC068B 		vldm	sp!, {d8-d10}
 279              		.cfi_restore 84
 280              		.cfi_restore 85
 281              		.cfi_restore 82
 282              		.cfi_restore 83
 283              		.cfi_restore 80
 284              		.cfi_restore 81
 285              		.cfi_def_cfa_offset 36
ARM GAS  C:\Users\alexa\AppData\Local\Temp\ccGX04Fc.s 			page 6


 286              	.LVL37:
 287 016c BDE8F08F 		pop	{r4, r5, r6, r7, r8, r9, r10, fp, pc}
 288              	.LVL38:
 289              	.L13:
 290              		.cfi_restore_state
 291              		.loc 1 36 0
 292 0170 0130     		adds	r0, r0, #1
 293              	.LVL39:
 294              		.loc 1 47 0
 295 0172 2346     		mov	r3, r4
 296              	.LVL40:
 297              		.loc 1 36 0
 298 0174 8542     		cmp	r5, r0
 299              		.loc 1 53 0
 300 0176 1A44     		add	r2, r2, r3
 301              	.LVL41:
 302 0178 01F10801 		add	r1, r1, #8
 303              		.loc 1 36 0
 304 017c 7FF450AF 		bne	.L7
 305 0180 70E7     		b	.L2
 306              	.LVL42:
 307              	.L24:
 308              		.loc 1 79 0
 309 0182 FFF7FEFF 		bl	__stack_chk_fail
 310              	.LVL43:
 311              	.L26:
 312 0186 00BF     		.align	2
 313              	.L25:
 314 0188 00000000 		.word	__stack_chk_guard
 315 018c DB0F4940 		.word	1078530011
 316              		.cfi_endproc
 317              	.LFE289:
 318              		.size	fft_c, .-fft_c
 319              		.section	.text.doFFT_optimized,"ax",%progbits
 320              		.align	1
 321              		.p2align 4,,15
 322              		.global	doFFT_optimized
 323              		.syntax unified
 324              		.thumb
 325              		.thumb_func
 326              		.fpu fpv4-sp-d16
 327              		.type	doFFT_optimized, %function
 328              	doFFT_optimized:
 329              	.LFB290:
 330              		.loc 1 85 0
 331              		.cfi_startproc
 332              		@ args = 0, pretend = 0, frame = 8
 333              		@ frame_needed = 0, uses_anonymous_args = 0
 334              	.LVL44:
 335 0000 00B5     		push	{lr}
 336              		.cfi_def_cfa_offset 4
 337              		.cfi_offset 14, -4
 338 0002 0D4B     		ldr	r3, .L34
 339 0004 83B0     		sub	sp, sp, #12
 340              		.cfi_def_cfa_offset 16
 341              		.loc 1 85 0
 342 0006 1A68     		ldr	r2, [r3]
ARM GAS  C:\Users\alexa\AppData\Local\Temp\ccGX04Fc.s 			page 7


 343 0008 0192     		str	r2, [sp, #4]
 344              		.loc 1 86 0
 345 000a B0F5806F 		cmp	r0, #1024
 346              		.loc 1 87 0
 347 000e 019A     		ldr	r2, [sp, #4]
 348 0010 1B68     		ldr	r3, [r3]
 349              		.loc 1 86 0
 350 0012 04D0     		beq	.L33
 351              		.loc 1 89 0
 352 0014 9A42     		cmp	r2, r3
 353 0016 0CD1     		bne	.L32
 354 0018 03B0     		add	sp, sp, #12
 355              		.cfi_remember_state
 356              		.cfi_def_cfa_offset 4
 357              		@ sp needed
 358 001a 5DF804FB 		ldr	pc, [sp], #4
 359              	.L33:
 360              		.cfi_restore_state
 361              		.loc 1 87 0
 362 001e 9A42     		cmp	r2, r3
 363 0020 07D1     		bne	.L32
 364 0022 0648     		ldr	r0, .L34+4
 365              	.LVL45:
 366 0024 0123     		movs	r3, #1
 367 0026 0022     		movs	r2, #0
 368              		.loc 1 89 0
 369 0028 03B0     		add	sp, sp, #12
 370              		.cfi_remember_state
 371              		.cfi_def_cfa_offset 4
 372              		@ sp needed
 373 002a 5DF804EB 		ldr	lr, [sp], #4
 374              		.cfi_restore 14
 375              		.cfi_def_cfa_offset 0
 376              		.loc 1 87 0
 377 002e FFF7FEBF 		b	arm_cfft_f32
 378              	.LVL46:
 379              	.L32:
 380              		.cfi_restore_state
 381              		.loc 1 89 0
 382 0032 FFF7FEFF 		bl	__stack_chk_fail
 383              	.LVL47:
 384              	.L35:
 385 0036 00BF     		.align	2
 386              	.L34:
 387 0038 00000000 		.word	__stack_chk_guard
 388 003c 00000000 		.word	.LANCHOR0
 389              		.cfi_endproc
 390              	.LFE290:
 391              		.size	doFFT_optimized, .-doFFT_optimized
 392              		.section	.text.doFFT_c,"ax",%progbits
 393              		.align	1
 394              		.p2align 4,,15
 395              		.global	doFFT_c
 396              		.syntax unified
 397              		.thumb
 398              		.thumb_func
 399              		.fpu fpv4-sp-d16
ARM GAS  C:\Users\alexa\AppData\Local\Temp\ccGX04Fc.s 			page 8


 400              		.type	doFFT_c, %function
 401              	doFFT_c:
 402              	.LFB291:
 403              		.loc 1 94 0
 404              		.cfi_startproc
 405              		@ args = 0, pretend = 0, frame = 8
 406              		@ frame_needed = 0, uses_anonymous_args = 0
 407              	.LVL48:
 408 0000 00B5     		push	{lr}
 409              		.cfi_def_cfa_offset 4
 410              		.cfi_offset 14, -4
 411 0002 084B     		ldr	r3, .L41
 412 0004 83B0     		sub	sp, sp, #12
 413              		.cfi_def_cfa_offset 16
 414              		.loc 1 94 0
 415 0006 1A68     		ldr	r2, [r3]
 416 0008 0192     		str	r2, [sp, #4]
 417              		.loc 1 96 0
 418 000a 019A     		ldr	r2, [sp, #4]
 419 000c 1B68     		ldr	r3, [r3]
 420 000e 9A42     		cmp	r2, r3
 421 0010 06D1     		bne	.L40
 422 0012 B7EE000A 		vmov.f32	s0, #1.0e+0
 423              		.loc 1 97 0
 424 0016 03B0     		add	sp, sp, #12
 425              		.cfi_remember_state
 426              		.cfi_def_cfa_offset 4
 427              		@ sp needed
 428 0018 5DF804EB 		ldr	lr, [sp], #4
 429              		.cfi_restore 14
 430              		.cfi_def_cfa_offset 0
 431              		.loc 1 96 0
 432 001c FFF7FEBF 		b	fft_c
 433              	.LVL49:
 434              	.L40:
 435              		.cfi_restore_state
 436 0020 FFF7FEFF 		bl	__stack_chk_fail
 437              	.LVL50:
 438              	.L42:
 439              		.align	2
 440              	.L41:
 441 0024 00000000 		.word	__stack_chk_guard
 442              		.cfi_endproc
 443              	.LFE291:
 444              		.size	doFFT_c, .-doFFT_c
 445              		.global	arm_cfft_sR_f32_len4096
 446              		.global	arm_cfft_sR_f32_len2048
 447              		.global	arm_cfft_sR_f32_len1024
 448              		.global	arm_cfft_sR_f32_len512
 449              		.global	arm_cfft_sR_f32_len256
 450              		.global	arm_cfft_sR_f32_len128
 451              		.global	arm_cfft_sR_f32_len64
 452              		.global	arm_cfft_sR_f32_len32
 453              		.global	arm_cfft_sR_f32_len16
 454              		.section	.rodata.arm_cfft_sR_f32_len1024,"a",%progbits
 455              		.align	2
 456              		.set	.LANCHOR0,. + 0
ARM GAS  C:\Users\alexa\AppData\Local\Temp\ccGX04Fc.s 			page 9


 457              		.type	arm_cfft_sR_f32_len1024, %object
 458              		.size	arm_cfft_sR_f32_len1024, 16
 459              	arm_cfft_sR_f32_len1024:
 460 0000 0004     		.short	1024
 461 0002 0000     		.space	2
 462 0004 00000000 		.word	twiddleCoef_1024
 463 0008 00000000 		.word	armBitRevIndexTable1024
 464 000c 0807     		.short	1800
 465 000e 0000     		.space	2
 466              		.section	.rodata.arm_cfft_sR_f32_len128,"a",%progbits
 467              		.align	2
 468              		.type	arm_cfft_sR_f32_len128, %object
 469              		.size	arm_cfft_sR_f32_len128, 16
 470              	arm_cfft_sR_f32_len128:
 471 0000 8000     		.short	128
 472 0002 0000     		.space	2
 473 0004 00000000 		.word	twiddleCoef_128
 474 0008 00000000 		.word	armBitRevIndexTable128
 475 000c D000     		.short	208
 476 000e 0000     		.space	2
 477              		.section	.rodata.arm_cfft_sR_f32_len16,"a",%progbits
 478              		.align	2
 479              		.type	arm_cfft_sR_f32_len16, %object
 480              		.size	arm_cfft_sR_f32_len16, 16
 481              	arm_cfft_sR_f32_len16:
 482 0000 1000     		.short	16
 483 0002 0000     		.space	2
 484 0004 00000000 		.word	twiddleCoef_16
 485 0008 00000000 		.word	armBitRevIndexTable16
 486 000c 1400     		.short	20
 487 000e 0000     		.space	2
 488              		.section	.rodata.arm_cfft_sR_f32_len2048,"a",%progbits
 489              		.align	2
 490              		.type	arm_cfft_sR_f32_len2048, %object
 491              		.size	arm_cfft_sR_f32_len2048, 16
 492              	arm_cfft_sR_f32_len2048:
 493 0000 0008     		.short	2048
 494 0002 0000     		.space	2
 495 0004 00000000 		.word	twiddleCoef_2048
 496 0008 00000000 		.word	armBitRevIndexTable2048
 497 000c E00E     		.short	3808
 498 000e 0000     		.space	2
 499              		.section	.rodata.arm_cfft_sR_f32_len256,"a",%progbits
 500              		.align	2
 501              		.type	arm_cfft_sR_f32_len256, %object
 502              		.size	arm_cfft_sR_f32_len256, 16
 503              	arm_cfft_sR_f32_len256:
 504 0000 0001     		.short	256
 505 0002 0000     		.space	2
 506 0004 00000000 		.word	twiddleCoef_256
 507 0008 00000000 		.word	armBitRevIndexTable256
 508 000c B801     		.short	440
 509 000e 0000     		.space	2
 510              		.section	.rodata.arm_cfft_sR_f32_len32,"a",%progbits
 511              		.align	2
 512              		.type	arm_cfft_sR_f32_len32, %object
 513              		.size	arm_cfft_sR_f32_len32, 16
ARM GAS  C:\Users\alexa\AppData\Local\Temp\ccGX04Fc.s 			page 10


 514              	arm_cfft_sR_f32_len32:
 515 0000 2000     		.short	32
 516 0002 0000     		.space	2
 517 0004 00000000 		.word	twiddleCoef_32
 518 0008 00000000 		.word	armBitRevIndexTable32
 519 000c 3000     		.short	48
 520 000e 0000     		.space	2
 521              		.section	.rodata.arm_cfft_sR_f32_len4096,"a",%progbits
 522              		.align	2
 523              		.type	arm_cfft_sR_f32_len4096, %object
 524              		.size	arm_cfft_sR_f32_len4096, 16
 525              	arm_cfft_sR_f32_len4096:
 526 0000 0010     		.short	4096
 527 0002 0000     		.space	2
 528 0004 00000000 		.word	twiddleCoef_4096
 529 0008 00000000 		.word	armBitRevIndexTable4096
 530 000c C00F     		.short	4032
 531 000e 0000     		.space	2
 532              		.section	.rodata.arm_cfft_sR_f32_len512,"a",%progbits
 533              		.align	2
 534              		.type	arm_cfft_sR_f32_len512, %object
 535              		.size	arm_cfft_sR_f32_len512, 16
 536              	arm_cfft_sR_f32_len512:
 537 0000 0002     		.short	512
 538 0002 0000     		.space	2
 539 0004 00000000 		.word	twiddleCoef_512
 540 0008 00000000 		.word	armBitRevIndexTable512
 541 000c C001     		.short	448
 542 000e 0000     		.space	2
 543              		.section	.rodata.arm_cfft_sR_f32_len64,"a",%progbits
 544              		.align	2
 545              		.type	arm_cfft_sR_f32_len64, %object
 546              		.size	arm_cfft_sR_f32_len64, 16
 547              	arm_cfft_sR_f32_len64:
 548 0000 4000     		.short	64
 549 0002 0000     		.space	2
 550 0004 00000000 		.word	twiddleCoef_64
 551 0008 00000000 		.word	armBitRevIndexTable64
 552 000c 3800     		.short	56
 553 000e 0000     		.space	2
 554              		.text
 555              	.Letext0:
 556              		.file 2 "c:\\users\\alexa\\downloads\\programmes\\eclipse_e-puck2\\tools\\gcc-arm-none-eabi-7-2017
 557              		.file 3 "c:\\users\\alexa\\downloads\\programmes\\eclipse_e-puck2\\tools\\gcc-arm-none-eabi-7-2017
 558              		.file 4 "c:\\users\\alexa\\downloads\\programmes\\eclipse_e-puck2\\tools\\gcc-arm-none-eabi-7-2017
 559              		.file 5 "../../lib/e-puck2_main-processor/ChibiOS//os/rt/ports/ARMCMx/compilers/GCC/chtypes.h"
 560              		.file 6 "../../lib/e-puck2_main-processor/ChibiOS//os/rt/include/chsystypes.h"
 561              		.file 7 "../../lib/e-puck2_main-processor/ChibiOS//os/rt/include/chschd.h"
 562              		.file 8 "../../lib/e-puck2_main-processor/ChibiOS//os/ext/CMSIS/include/core_cm4.h"
 563              		.file 9 "../../lib/e-puck2_main-processor/ChibiOS//os/ext/CMSIS/ST/system_stm32f4xx.h"
 564              		.file 10 "../../lib/e-puck2_main-processor/ChibiOS//os/ext/CMSIS/ST/stm32f407xx.h"
 565              		.file 11 "../../lib/e-puck2_main-processor/ChibiOS//os/rt/ports/ARMCMx/chcore.h"
 566              		.file 12 "../../lib/e-puck2_main-processor/ChibiOS//os/rt/ports/ARMCMx/chcore_v7m.h"
 567              		.file 13 "../../lib/e-puck2_main-processor/ChibiOS//os/rt/include/chdebug.h"
 568              		.file 14 "../../lib/e-puck2_main-processor/ChibiOS//os/rt/include/chtm.h"
 569              		.file 15 "../../lib/e-puck2_main-processor/ChibiOS//os/rt/include/chstats.h"
 570              		.file 16 "../../lib/e-puck2_main-processor/ChibiOS//os/rt/include/chsem.h"
ARM GAS  C:\Users\alexa\AppData\Local\Temp\ccGX04Fc.s 			page 11


 571              		.file 17 "../../lib/e-puck2_main-processor/ChibiOS//os/rt/include/chmtx.h"
 572              		.file 18 "../../lib/e-puck2_main-processor/ChibiOS//os/rt/include/chregistry.h"
 573              		.file 19 "../../lib/e-puck2_main-processor/ChibiOS//os/rt/include/chevents.h"
 574              		.file 20 "../../lib/e-puck2_main-processor/ChibiOS//os/rt/include/chqueues.h"
 575              		.file 21 "../../lib/e-puck2_main-processor/ChibiOS//os/hal/ports/STM32/STM32F4xx/stm32_dma.h"
 576              		.file 22 "../../lib/e-puck2_main-processor/ChibiOS//os/hal/include/hal_ioblock.h"
 577              		.file 23 "../../lib/e-puck2_main-processor/ChibiOS//os/hal/ports/STM32/LLD/GPIOv2/pal_lld.h"
 578              		.file 24 "../../lib/e-puck2_main-processor/ChibiOS//os/hal/include/adc.h"
 579              		.file 25 "../../lib/e-puck2_main-processor/ChibiOS//os/hal/ports/STM32/STM32F4xx/adc_lld.h"
 580              		.file 26 "../../lib/e-puck2_main-processor/ChibiOS//os/hal/include/can.h"
 581              		.file 27 "../../lib/e-puck2_main-processor/ChibiOS//os/hal/ports/STM32/LLD/can_lld.h"
 582              		.file 28 "../../lib/e-puck2_main-processor/ChibiOS//os/hal/include/dac.h"
 583              		.file 29 "../../lib/e-puck2_main-processor/ChibiOS//os/hal/ports/STM32/LLD/DACv1/dac_lld.h"
 584              		.file 30 "../../lib/e-puck2_main-processor/ChibiOS//os/hal/include/ext.h"
 585              		.file 31 "../../lib/e-puck2_main-processor/ChibiOS//os/hal/ports/STM32/LLD/ext_lld.h"
 586              		.file 32 "../../lib/e-puck2_main-processor/ChibiOS//os/hal/include/gpt.h"
 587              		.file 33 "../../lib/e-puck2_main-processor/ChibiOS//os/hal/ports/STM32/LLD/TIMv1/gpt_lld.h"
 588              		.file 34 "../../lib/e-puck2_main-processor/ChibiOS//os/hal/ports/STM32/LLD/TIMv1/stm32_tim.h"
 589              		.file 35 "../../lib/e-puck2_main-processor/ChibiOS//os/hal/include/i2c.h"
 590              		.file 36 "../../lib/e-puck2_main-processor/ChibiOS//os/hal/ports/STM32/LLD/I2Cv1/i2c_lld.h"
 591              		.file 37 "../../lib/e-puck2_main-processor/ChibiOS//os/hal/include/i2s.h"
 592              		.file 38 "../../lib/e-puck2_main-processor/ChibiOS//os/hal/ports/STM32/LLD/SPIv1/i2s_lld.h"
 593              		.file 39 "../../lib/e-puck2_main-processor/ChibiOS//os/hal/include/pwm.h"
 594              		.file 40 "../../lib/e-puck2_main-processor/ChibiOS//os/hal/ports/STM32/LLD/TIMv1/pwm_lld.h"
 595              		.file 41 "../../lib/e-puck2_main-processor/ChibiOS//os/hal/include/serial.h"
 596              		.file 42 "../../lib/e-puck2_main-processor/ChibiOS//os/hal/ports/STM32/LLD/USARTv1/serial_lld.h"
 597              		.file 43 "../../lib/e-puck2_main-processor/ChibiOS//os/hal/include/sdc.h"
 598              		.file 44 "../../lib/e-puck2_main-processor/ChibiOS//os/hal/ports/STM32/LLD/sdc_lld.h"
 599              		.file 45 "../../lib/e-puck2_main-processor/ChibiOS//os/hal/include/spi.h"
 600              		.file 46 "../../lib/e-puck2_main-processor/ChibiOS//os/hal/ports/STM32/LLD/SPIv1/spi_lld.h"
 601              		.file 47 "../../lib/e-puck2_main-processor/ChibiOS//os/hal/include/usb.h"
 602              		.file 48 "../../lib/e-puck2_main-processor/ChibiOS//os/hal/ports/STM32/LLD/OTGv1/usb_lld.h"
 603              		.file 49 "../../lib/e-puck2_main-processor/ChibiOS//os/hal/ports/STM32/LLD/OTGv1/stm32_otg.h"
 604              		.file 50 "../../lib/e-puck2_main-processor/ChibiOS_ext/os/hal/include/../ports/STM32/STM32F4xx/dcm
 605              		.file 51 "c:\\users\\alexa\\downloads\\programmes\\eclipse_e-puck2\\tools\\gcc-arm-none-eabi-7-201
 606              		.file 52 "c:\\users\\alexa\\downloads\\programmes\\eclipse_e-puck2\\tools\\gcc-arm-none-eabi-7-201
 607              		.file 53 "c:\\users\\alexa\\downloads\\programmes\\eclipse_e-puck2\\tools\\gcc-arm-none-eabi-7-201
 608              		.file 54 "c:\\users\\alexa\\downloads\\programmes\\eclipse_e-puck2\\tools\\gcc-arm-none-eabi-7-201
 609              		.file 55 "../../lib/e-puck2_main-processor/src/msgbus/messagebus.h"
 610              		.file 56 "c:\\users\\alexa\\downloads\\programmes\\eclipse_e-puck2\\tools\\gcc-arm-none-eabi-7-201
 611              		.file 57 "c:\\users\\alexa\\downloads\\programmes\\eclipse_e-puck2\\tools\\gcc-arm-none-eabi-7-201
 612              		.file 58 "../../lib/e-puck2_main-processor/src/parameter/parameter.h"
 613              		.file 59 "./main.h"
 614              		.file 60 "c:\\users\\alexa\\downloads\\programmes\\eclipse_e-puck2\\tools\\gcc-arm-none-eabi-7-201
 615              		.file 61 "./fft.h"
 616              		.file 62 "../../lib/e-puck2_main-processor/ChibiOS//os/ext/CMSIS/include/arm_math.h"
 617              		.file 63 "../../lib/e-puck2_main-processor/ChibiOS//os/ext/CMSIS/include/arm_common_tables.h"
 618              		.file 64 "../../lib/e-puck2_main-processor/ChibiOS//os/ext/CMSIS/include/arm_const_structs.h"