ARM GAS  C:\Users\alexa\AppData\Local\Temp\ccdt24iA.s 			page 1


   1              		.cpu cortex-m4
   2              		.eabi_attribute 27, 1
   3              		.eabi_attribute 28, 1
   4              		.eabi_attribute 20, 1
   5              		.eabi_attribute 21, 1
   6              		.eabi_attribute 23, 3
   7              		.eabi_attribute 24, 1
   8              		.eabi_attribute 25, 1
   9              		.eabi_attribute 26, 1
  10              		.eabi_attribute 30, 2
  11              		.eabi_attribute 34, 1
  12              		.eabi_attribute 18, 4
  13              		.file	"ir_processing.c"
  14              		.text
  15              	.Ltext0:
  16              		.cfi_sections	.debug_frame
  17              		.section	.text.get_side,"ax",%progbits
  18              		.align	1
  19              		.p2align 4,,15
  20              		.global	get_side
  21              		.syntax unified
  22              		.thumb
  23              		.thumb_func
  24              		.fpu fpv4-sp-d16
  25              		.type	get_side, %function
  26              	get_side:
  27              	.LFB291:
  28              		.file 1 "ir_processing.c"
  29              		.loc 1 91 0
  30              		.cfi_startproc
  31              		@ args = 0, pretend = 0, frame = 8
  32              		@ frame_needed = 0, uses_anonymous_args = 0
  33 0000 30B5     		push	{r4, r5, lr}
  34              		.cfi_def_cfa_offset 12
  35              		.cfi_offset 4, -12
  36              		.cfi_offset 5, -8
  37              		.cfi_offset 14, -4
  38 0002 0A4C     		ldr	r4, .L6
  39 0004 83B0     		sub	sp, sp, #12
  40              		.cfi_def_cfa_offset 24
  41              		.loc 1 91 0
  42 0006 2368     		ldr	r3, [r4]
  43 0008 0193     		str	r3, [sp, #4]
  44              		.loc 1 92 0
  45 000a 0220     		movs	r0, #2
  46 000c FFF7FEFF 		bl	get_prox
  47              	.LVL0:
  48 0010 0546     		mov	r5, r0
  49 0012 0520     		movs	r0, #5
  50 0014 FFF7FEFF 		bl	get_prox
  51              	.LVL1:
  52              		.loc 1 93 0
  53 0018 019A     		ldr	r2, [sp, #4]
  54 001a 2368     		ldr	r3, [r4]
  55 001c 9A42     		cmp	r2, r3
  56 001e A5EB0000 		sub	r0, r5, r0
  57 0022 01D1     		bne	.L5
ARM GAS  C:\Users\alexa\AppData\Local\Temp\ccdt24iA.s 			page 2


  58 0024 03B0     		add	sp, sp, #12
  59              		.cfi_remember_state
  60              		.cfi_def_cfa_offset 12
  61              		@ sp needed
  62 0026 30BD     		pop	{r4, r5, pc}
  63              	.L5:
  64              		.cfi_restore_state
  65 0028 FFF7FEFF 		bl	__stack_chk_fail
  66              	.LVL2:
  67              	.L7:
  68              		.align	2
  69              	.L6:
  70 002c 00000000 		.word	__stack_chk_guard
  71              		.cfi_endproc
  72              	.LFE291:
  73              		.size	get_side, .-get_side
  74              		.section	.text.ir_condition,"ax",%progbits
  75              		.align	1
  76              		.p2align 4,,15
  77              		.global	ir_condition
  78              		.syntax unified
  79              		.thumb
  80              		.thumb_func
  81              		.fpu fpv4-sp-d16
  82              		.type	ir_condition, %function
  83              	ir_condition:
  84              	.LFB292:
  85              		.loc 1 96 0
  86              		.cfi_startproc
  87              		@ args = 0, pretend = 0, frame = 8
  88              		@ frame_needed = 0, uses_anonymous_args = 0
  89 0000 2DE9F047 		push	{r4, r5, r6, r7, r8, r9, r10, lr}
  90              		.cfi_def_cfa_offset 32
  91              		.cfi_offset 4, -32
  92              		.cfi_offset 5, -28
  93              		.cfi_offset 6, -24
  94              		.cfi_offset 7, -20
  95              		.cfi_offset 8, -16
  96              		.cfi_offset 9, -12
  97              		.cfi_offset 10, -8
  98              		.cfi_offset 14, -4
  99 0004 254D     		ldr	r5, .L17
 100              		.loc 1 98 0
 101 0006 DFF8A8A0 		ldr	r10, .L17+20
 102              		.loc 1 99 0
 103 000a DFF8A890 		ldr	r9, .L17+24
 104              		.loc 1 100 0
 105 000e DFF8A880 		ldr	r8, .L17+28
 106              		.loc 1 96 0
 107 0012 2B68     		ldr	r3, [r5]
 108              		.loc 1 102 0
 109 0014 224E     		ldr	r6, .L17+4
 110              		.loc 1 103 0
 111 0016 234F     		ldr	r7, .L17+8
 112              		.loc 1 96 0
 113 0018 82B0     		sub	sp, sp, #8
 114              		.cfi_def_cfa_offset 40
ARM GAS  C:\Users\alexa\AppData\Local\Temp\ccdt24iA.s 			page 3


 115              		.loc 1 98 0
 116 001a 0024     		movs	r4, #0
 117              		.loc 1 102 0
 118 001c 0720     		movs	r0, #7
 119              		.loc 1 96 0
 120 001e 0193     		str	r3, [sp, #4]
 121              		.loc 1 98 0
 122 0020 CAF80040 		str	r4, [r10]
 123              		.loc 1 99 0
 124 0024 C9F80040 		str	r4, [r9]
 125              		.loc 1 100 0
 126 0028 C8F80040 		str	r4, [r8]
 127              		.loc 1 102 0
 128 002c FFF7FEFF 		bl	get_prox
 129              	.LVL3:
 130 0030 3060     		str	r0, [r6]
 131              		.loc 1 103 0
 132 0032 2046     		mov	r0, r4
 133 0034 FFF7FEFF 		bl	get_prox
 134              	.LVL4:
 135 0038 3860     		str	r0, [r7]
 136              		.loc 1 104 0
 137 003a 0220     		movs	r0, #2
 138 003c FFF7FEFF 		bl	get_prox
 139              	.LVL5:
 140 0040 194C     		ldr	r4, .L17+12
 141 0042 2060     		str	r0, [r4]
 142              		.loc 1 105 0
 143 0044 0520     		movs	r0, #5
 144 0046 FFF7FEFF 		bl	get_prox
 145              	.LVL6:
 146              		.loc 1 106 0
 147 004a 3268     		ldr	r2, [r6]
 148 004c 3B68     		ldr	r3, [r7]
 149              		.loc 1 111 0
 150 004e 9FED177A 		vldr.32	s14, .L17+16
 151              		.loc 1 106 0
 152 0052 1344     		add	r3, r3, r2
 153              		.loc 1 109 0
 154 0054 B0F58C7F 		cmp	r0, #280
 155              		.loc 1 106 0
 156 0058 07EE903A 		vmov	s15, r3	@ int
 157              		.loc 1 109 0
 158 005c 84BF     		itt	hi
 159 005e 0123     		movhi	r3, #1
 160 0060 CAF80030 		strhi	r3, [r10]
 161              		.loc 1 110 0
 162 0064 2368     		ldr	r3, [r4]
 163              		.loc 1 112 0
 164 0066 019A     		ldr	r2, [sp, #4]
 165              		.loc 1 106 0
 166 0068 FBEEEF7A 		vcvt.f32.u32	s15, s15, #1
 167              		.loc 1 110 0
 168 006c B3F58C7F 		cmp	r3, #280
 169 0070 88BF     		it	hi
 170 0072 0123     		movhi	r3, #1
 171              		.loc 1 111 0
ARM GAS  C:\Users\alexa\AppData\Local\Temp\ccdt24iA.s 			page 4


 172 0074 F4EEC77A 		vcmpe.f32	s15, s14
 173              		.loc 1 110 0
 174 0078 88BF     		it	hi
 175 007a C9F80030 		strhi	r3, [r9]
 176              		.loc 1 111 0
 177 007e F1EE10FA 		vmrs	APSR_nzcv, FPSCR
 178 0082 C4BF     		itt	gt
 179 0084 0123     		movgt	r3, #1
 180 0086 C8F80030 		strgt	r3, [r8]
 181              		.loc 1 112 0
 182 008a 2B68     		ldr	r3, [r5]
 183 008c 9A42     		cmp	r2, r3
 184 008e 02D1     		bne	.L16
 185 0090 02B0     		add	sp, sp, #8
 186              		.cfi_remember_state
 187              		.cfi_def_cfa_offset 32
 188              		@ sp needed
 189 0092 BDE8F087 		pop	{r4, r5, r6, r7, r8, r9, r10, pc}
 190              	.L16:
 191              		.cfi_restore_state
 192 0096 FFF7FEFF 		bl	__stack_chk_fail
 193              	.LVL7:
 194              	.L18:
 195 009a 00BF     		.align	2
 196              	.L17:
 197 009c 00000000 		.word	__stack_chk_guard
 198 00a0 00000000 		.word	.LANCHOR3
 199 00a4 00000000 		.word	.LANCHOR4
 200 00a8 00000000 		.word	.LANCHOR5
 201 00ac 00008C43 		.word	1133248512
 202 00b0 00000000 		.word	.LANCHOR0
 203 00b4 00000000 		.word	.LANCHOR1
 204 00b8 00000000 		.word	.LANCHOR2
 205              		.cfi_endproc
 206              	.LFE292:
 207              		.size	ir_condition, .-ir_condition
 208              		.section	.text.get_position,"ax",%progbits
 209              		.align	1
 210              		.p2align 4,,15
 211              		.global	get_position
 212              		.syntax unified
 213              		.thumb
 214              		.thumb_func
 215              		.fpu fpv4-sp-d16
 216              		.type	get_position, %function
 217              	get_position:
 218              	.LFB290:
 219              		.loc 1 23 0
 220              		.cfi_startproc
 221              		@ args = 0, pretend = 0, frame = 8
 222              		@ frame_needed = 0, uses_anonymous_args = 0
 223 0000 F0B5     		push	{r4, r5, r6, r7, lr}
 224              		.cfi_def_cfa_offset 20
 225              		.cfi_offset 4, -20
 226              		.cfi_offset 5, -16
 227              		.cfi_offset 6, -12
 228              		.cfi_offset 7, -8
ARM GAS  C:\Users\alexa\AppData\Local\Temp\ccdt24iA.s 			page 5


 229              		.cfi_offset 14, -4
 230 0002 734C     		ldr	r4, .L47
 231 0004 83B0     		sub	sp, sp, #12
 232              		.cfi_def_cfa_offset 32
 233              		.loc 1 23 0
 234 0006 2368     		ldr	r3, [r4]
 235 0008 0193     		str	r3, [sp, #4]
 236              		.loc 1 28 0
 237 000a FFF7FEFF 		bl	ir_condition
 238              	.LVL8:
 239              		.loc 1 30 0
 240 000e 714B     		ldr	r3, .L47+4
 241 0010 1B68     		ldr	r3, [r3]
 242 0012 002B     		cmp	r3, #0
 243 0014 26D1     		bne	.L42
 244              		.loc 1 37 0 discriminator 1
 245 0016 704A     		ldr	r2, .L47+8
 246 0018 7049     		ldr	r1, .L47+12
 247 001a 1268     		ldr	r2, [r2]
 248 001c 0D68     		ldr	r5, [r1]
 249 001e 002A     		cmp	r2, #0
 250 0020 59D1     		bne	.L25
 251              		.loc 1 37 0 is_stmt 0 discriminator 2
 252 0022 002D     		cmp	r5, #0
 253 0024 40F09F80 		bne	.L43
 254              		.loc 1 81 0 is_stmt 1
 255 0028 6D49     		ldr	r1, .L47+16
 256              		.loc 1 80 0
 257 002a 6E4A     		ldr	r2, .L47+20
 258              		.loc 1 81 0
 259 002c 0D60     		str	r5, [r1]
 260 002e 6E48     		ldr	r0, .L47+24
 261 0030 6E49     		ldr	r1, .L47+28
 262 0032 0560     		str	r5, [r0]
 263 0034 0D60     		str	r5, [r1]
 264              		.loc 1 80 0
 265 0036 1368     		ldr	r3, [r2]
 266              		.loc 1 81 0
 267 0038 6D48     		ldr	r0, .L47+32
 268 003a 6E49     		ldr	r1, .L47+36
 269 003c 0560     		str	r5, [r0]
 270              		.loc 1 80 0
 271 003e 0133     		adds	r3, r3, #1
 272              		.loc 1 81 0
 273 0040 0D60     		str	r5, [r1]
 274 0042 6D48     		ldr	r0, .L47+40
 275 0044 6D49     		ldr	r1, .L47+44
 276              		.loc 1 80 0
 277 0046 1360     		str	r3, [r2]
 278              		.loc 1 82 0
 279 0048 042B     		cmp	r3, #4
 280              		.loc 1 81 0
 281 004a 0560     		str	r5, [r0]
 282 004c 0D60     		str	r5, [r1]
 283              		.loc 1 83 0
 284 004e 6C4B     		ldr	r3, .L47+48
 285              		.loc 1 82 0
ARM GAS  C:\Users\alexa\AppData\Local\Temp\ccdt24iA.s 			page 6


 286 0050 6FD9     		bls	.L40
 287              		.loc 1 83 0
 288 0052 0620     		movs	r0, #6
 289 0054 1860     		str	r0, [r3]
 290              	.L19:
 291              		.loc 1 87 0
 292 0056 019A     		ldr	r2, [sp, #4]
 293 0058 2368     		ldr	r3, [r4]
 294 005a 9A42     		cmp	r2, r3
 295 005c 40F0B680 		bne	.L44
 296 0060 03B0     		add	sp, sp, #12
 297              		.cfi_remember_state
 298              		.cfi_def_cfa_offset 20
 299              		@ sp needed
 300 0062 F0BD     		pop	{r4, r5, r6, r7, pc}
 301              	.L42:
 302              		.cfi_restore_state
 303              		.loc 1 30 0 discriminator 1
 304 0064 5C4B     		ldr	r3, .L47+8
 305 0066 1868     		ldr	r0, [r3]
 306 0068 5C4B     		ldr	r3, .L47+12
 307 006a 1B68     		ldr	r3, [r3]
 308 006c D0B1     		cbz	r0, .L45
 309              		.loc 1 58 0 discriminator 2
 310 006e 002B     		cmp	r3, #0
 311 0070 40F09180 		bne	.L30
 312              		.loc 1 60 0
 313 0074 5A48     		ldr	r0, .L47+16
 314              		.loc 1 59 0
 315 0076 6049     		ldr	r1, .L47+40
 316              		.loc 1 60 0
 317 0078 0360     		str	r3, [r0]
 318 007a 5B4D     		ldr	r5, .L47+24
 319 007c 5B48     		ldr	r0, .L47+28
 320 007e 2B60     		str	r3, [r5]
 321 0080 0360     		str	r3, [r0]
 322              		.loc 1 59 0
 323 0082 0A68     		ldr	r2, [r1]
 324              		.loc 1 60 0
 325 0084 5A4D     		ldr	r5, .L47+32
 326 0086 5B48     		ldr	r0, .L47+36
 327 0088 2B60     		str	r3, [r5]
 328 008a 0360     		str	r3, [r0]
 329              		.loc 1 59 0
 330 008c 0132     		adds	r2, r2, #1
 331              		.loc 1 60 0
 332 008e 5B4D     		ldr	r5, .L47+44
 333 0090 5448     		ldr	r0, .L47+20
 334 0092 2B60     		str	r3, [r5]
 335              		.loc 1 61 0
 336 0094 042A     		cmp	r2, #4
 337              		.loc 1 60 0
 338 0096 0360     		str	r3, [r0]
 339              		.loc 1 59 0
 340 0098 0A60     		str	r2, [r1]
 341              		.loc 1 62 0
 342 009a 594B     		ldr	r3, .L47+48
ARM GAS  C:\Users\alexa\AppData\Local\Temp\ccdt24iA.s 			page 7


 343              		.loc 1 61 0
 344 009c 49D9     		bls	.L40
 345              		.loc 1 62 0
 346 009e 0220     		movs	r0, #2
 347 00a0 1860     		str	r0, [r3]
 348 00a2 D8E7     		b	.L19
 349              	.L45:
 350              		.loc 1 30 0 discriminator 2
 351 00a4 002B     		cmp	r3, #0
 352 00a6 46D0     		beq	.L22
 353              		.loc 1 32 0
 354 00a8 4F49     		ldr	r1, .L47+24
 355              		.loc 1 31 0
 356 00aa 4D4A     		ldr	r2, .L47+16
 357              		.loc 1 32 0
 358 00ac 0860     		str	r0, [r1]
 359 00ae 4F4D     		ldr	r5, .L47+28
 360 00b0 4F49     		ldr	r1, .L47+32
 361 00b2 2860     		str	r0, [r5]
 362 00b4 0860     		str	r0, [r1]
 363              		.loc 1 31 0
 364 00b6 1368     		ldr	r3, [r2]
 365              		.loc 1 32 0
 366 00b8 4F4D     		ldr	r5, .L47+40
 367 00ba 4E49     		ldr	r1, .L47+36
 368 00bc 2860     		str	r0, [r5]
 369              		.loc 1 31 0
 370 00be 0133     		adds	r3, r3, #1
 371              		.loc 1 32 0
 372 00c0 0860     		str	r0, [r1]
 373 00c2 4E4D     		ldr	r5, .L47+44
 374 00c4 4749     		ldr	r1, .L47+20
 375              		.loc 1 31 0
 376 00c6 1360     		str	r3, [r2]
 377              		.loc 1 33 0
 378 00c8 042B     		cmp	r3, #4
 379              		.loc 1 32 0
 380 00ca 2860     		str	r0, [r5]
 381 00cc 0860     		str	r0, [r1]
 382              		.loc 1 34 0
 383 00ce 4C4B     		ldr	r3, .L47+48
 384              		.loc 1 33 0
 385 00d0 2FD9     		bls	.L40
 386              	.L41:
 387              		.loc 1 76 0
 388 00d2 1860     		str	r0, [r3]
 389 00d4 BFE7     		b	.L19
 390              	.L25:
 391              		.loc 1 51 0
 392 00d6 BDB9     		cbnz	r5, .L46
 393              		.loc 1 53 0
 394 00d8 4149     		ldr	r1, .L47+16
 395              		.loc 1 52 0
 396 00da 454A     		ldr	r2, .L47+32
 397              		.loc 1 53 0
 398 00dc 0D60     		str	r5, [r1]
 399 00de 4248     		ldr	r0, .L47+24
ARM GAS  C:\Users\alexa\AppData\Local\Temp\ccdt24iA.s 			page 8


 400 00e0 4249     		ldr	r1, .L47+28
 401 00e2 0560     		str	r5, [r0]
 402 00e4 0D60     		str	r5, [r1]
 403              		.loc 1 52 0
 404 00e6 1368     		ldr	r3, [r2]
 405              		.loc 1 53 0
 406 00e8 4348     		ldr	r0, .L47+40
 407 00ea 4249     		ldr	r1, .L47+36
 408 00ec 0560     		str	r5, [r0]
 409              		.loc 1 52 0
 410 00ee 0133     		adds	r3, r3, #1
 411              		.loc 1 53 0
 412 00f0 0D60     		str	r5, [r1]
 413 00f2 4248     		ldr	r0, .L47+44
 414 00f4 3B49     		ldr	r1, .L47+20
 415              		.loc 1 52 0
 416 00f6 1360     		str	r3, [r2]
 417              		.loc 1 54 0
 418 00f8 042B     		cmp	r3, #4
 419              		.loc 1 53 0
 420 00fa 0560     		str	r5, [r0]
 421 00fc 0D60     		str	r5, [r1]
 422              		.loc 1 55 0
 423 00fe 404B     		ldr	r3, .L47+48
 424              		.loc 1 54 0
 425 0100 17D9     		bls	.L40
 426              		.loc 1 55 0
 427 0102 0320     		movs	r0, #3
 428 0104 1860     		str	r0, [r3]
 429 0106 A6E7     		b	.L19
 430              	.L46:
 431              		.loc 1 67 0
 432 0108 3548     		ldr	r0, .L47+16
 433              		.loc 1 66 0
 434 010a 3A49     		ldr	r1, .L47+36
 435              		.loc 1 67 0
 436 010c 0360     		str	r3, [r0]
 437 010e 364D     		ldr	r5, .L47+24
 438 0110 3648     		ldr	r0, .L47+28
 439 0112 2B60     		str	r3, [r5]
 440 0114 0360     		str	r3, [r0]
 441              		.loc 1 66 0
 442 0116 0A68     		ldr	r2, [r1]
 443              		.loc 1 67 0
 444 0118 354D     		ldr	r5, .L47+32
 445 011a 3748     		ldr	r0, .L47+40
 446 011c 2B60     		str	r3, [r5]
 447 011e 0360     		str	r3, [r0]
 448              		.loc 1 66 0
 449 0120 0132     		adds	r2, r2, #1
 450              		.loc 1 67 0
 451 0122 364D     		ldr	r5, .L47+44
 452 0124 2F48     		ldr	r0, .L47+20
 453 0126 2B60     		str	r3, [r5]
 454              		.loc 1 68 0
 455 0128 042A     		cmp	r2, #4
 456              		.loc 1 67 0
ARM GAS  C:\Users\alexa\AppData\Local\Temp\ccdt24iA.s 			page 9


 457 012a 0360     		str	r3, [r0]
 458              		.loc 1 66 0
 459 012c 0A60     		str	r2, [r1]
 460              		.loc 1 69 0
 461 012e 344B     		ldr	r3, .L47+48
 462              		.loc 1 68 0
 463 0130 49D8     		bhi	.L32
 464              	.L40:
 465 0132 1868     		ldr	r0, [r3]
 466 0134 8FE7     		b	.L19
 467              	.L22:
 468              		.loc 1 46 0
 469 0136 2A49     		ldr	r1, .L47+16
 470              		.loc 1 45 0
 471 0138 2C4A     		ldr	r2, .L47+28
 472              		.loc 1 46 0
 473 013a 0860     		str	r0, [r1]
 474 013c 2A4D     		ldr	r5, .L47+24
 475 013e 2C49     		ldr	r1, .L47+32
 476 0140 2860     		str	r0, [r5]
 477 0142 0860     		str	r0, [r1]
 478              		.loc 1 45 0
 479 0144 1368     		ldr	r3, [r2]
 480              		.loc 1 46 0
 481 0146 2C4D     		ldr	r5, .L47+40
 482 0148 2A49     		ldr	r1, .L47+36
 483 014a 2860     		str	r0, [r5]
 484              		.loc 1 45 0
 485 014c 0133     		adds	r3, r3, #1
 486              		.loc 1 46 0
 487 014e 0860     		str	r0, [r1]
 488 0150 2A4D     		ldr	r5, .L47+44
 489 0152 2449     		ldr	r1, .L47+20
 490              		.loc 1 45 0
 491 0154 1360     		str	r3, [r2]
 492              		.loc 1 47 0
 493 0156 042B     		cmp	r3, #4
 494              		.loc 1 46 0
 495 0158 2860     		str	r0, [r5]
 496 015a 0860     		str	r0, [r1]
 497              		.loc 1 48 0
 498 015c 284B     		ldr	r3, .L47+48
 499              		.loc 1 47 0
 500 015e E8D9     		bls	.L40
 501              		.loc 1 48 0
 502 0160 0520     		movs	r0, #5
 503 0162 1860     		str	r0, [r3]
 504 0164 77E7     		b	.L19
 505              	.L43:
 506              		.loc 1 39 0
 507 0166 1E48     		ldr	r0, .L47+16
 508              		.loc 1 38 0
 509 0168 1F49     		ldr	r1, .L47+24
 510              		.loc 1 39 0
 511 016a 0260     		str	r2, [r0]
 512 016c 1F4D     		ldr	r5, .L47+28
 513 016e 2048     		ldr	r0, .L47+32
ARM GAS  C:\Users\alexa\AppData\Local\Temp\ccdt24iA.s 			page 10


 514 0170 2A60     		str	r2, [r5]
 515 0172 0260     		str	r2, [r0]
 516              		.loc 1 38 0
 517 0174 0B68     		ldr	r3, [r1]
 518              		.loc 1 39 0
 519 0176 204D     		ldr	r5, .L47+40
 520 0178 1E48     		ldr	r0, .L47+36
 521 017a 2A60     		str	r2, [r5]
 522              		.loc 1 38 0
 523 017c 0133     		adds	r3, r3, #1
 524              		.loc 1 39 0
 525 017e 0260     		str	r2, [r0]
 526 0180 1E4D     		ldr	r5, .L47+44
 527 0182 1848     		ldr	r0, .L47+20
 528              		.loc 1 38 0
 529 0184 0B60     		str	r3, [r1]
 530              		.loc 1 40 0
 531 0186 042B     		cmp	r3, #4
 532              		.loc 1 39 0
 533 0188 2A60     		str	r2, [r5]
 534 018a 0260     		str	r2, [r0]
 535              		.loc 1 41 0
 536 018c 1C4B     		ldr	r3, .L47+48
 537              		.loc 1 40 0
 538 018e D0D9     		bls	.L40
 539              		.loc 1 41 0
 540 0190 0420     		movs	r0, #4
 541 0192 1860     		str	r0, [r3]
 542 0194 5FE7     		b	.L19
 543              	.L30:
 544              		.loc 1 73 0 discriminator 2
 545 0196 194B     		ldr	r3, .L47+44
 546              		.loc 1 74 0 discriminator 2
 547 0198 1448     		ldr	r0, .L47+28
 548              		.loc 1 73 0 discriminator 2
 549 019a 1A68     		ldr	r2, [r3]
 550              		.loc 1 74 0 discriminator 2
 551 019c 1449     		ldr	r1, .L47+32
 552 019e 104F     		ldr	r7, .L47+16
 553 01a0 114E     		ldr	r6, .L47+24
 554 01a2 144D     		ldr	r5, .L47+36
 555              		.loc 1 73 0 discriminator 2
 556 01a4 0132     		adds	r2, r2, #1
 557 01a6 1A60     		str	r2, [r3]
 558              		.loc 1 74 0 discriminator 2
 559 01a8 0023     		movs	r3, #0
 560 01aa 0360     		str	r3, [r0]
 561 01ac 0B60     		str	r3, [r1]
 562 01ae 1248     		ldr	r0, .L47+40
 563 01b0 0C49     		ldr	r1, .L47+20
 564 01b2 3B60     		str	r3, [r7]
 565              		.loc 1 75 0 discriminator 2
 566 01b4 042A     		cmp	r2, #4
 567              		.loc 1 74 0 discriminator 2
 568 01b6 3360     		str	r3, [r6]
 569 01b8 2B60     		str	r3, [r5]
 570 01ba 0360     		str	r3, [r0]
ARM GAS  C:\Users\alexa\AppData\Local\Temp\ccdt24iA.s 			page 11


 571 01bc 0B60     		str	r3, [r1]
 572              		.loc 1 76 0 discriminator 2
 573 01be 104B     		ldr	r3, .L47+48
 574              		.loc 1 75 0 discriminator 2
 575 01c0 B7D9     		bls	.L40
 576              		.loc 1 76 0
 577 01c2 0720     		movs	r0, #7
 578 01c4 85E7     		b	.L41
 579              	.L32:
 580              		.loc 1 69 0
 581 01c6 0120     		movs	r0, #1
 582 01c8 1860     		str	r0, [r3]
 583 01ca 44E7     		b	.L19
 584              	.L44:
 585              		.loc 1 87 0
 586 01cc FFF7FEFF 		bl	__stack_chk_fail
 587              	.LVL9:
 588              	.L48:
 589              		.align	2
 590              	.L47:
 591 01d0 00000000 		.word	__stack_chk_guard
 592 01d4 00000000 		.word	.LANCHOR0
 593 01d8 00000000 		.word	.LANCHOR2
 594 01dc 00000000 		.word	.LANCHOR1
 595 01e0 00000000 		.word	.LANCHOR6
 596 01e4 00000000 		.word	.LANCHOR13
 597 01e8 00000000 		.word	.LANCHOR7
 598 01ec 00000000 		.word	.LANCHOR8
 599 01f0 00000000 		.word	.LANCHOR9
 600 01f4 00000000 		.word	.LANCHOR11
 601 01f8 00000000 		.word	.LANCHOR10
 602 01fc 00000000 		.word	.LANCHOR12
 603 0200 00000000 		.word	.LANCHOR14
 604              		.cfi_endproc
 605              	.LFE290:
 606              		.size	get_position, .-get_position
 607              		.section	.bss.IR1.14137,"aw",%nobits
 608              		.align	2
 609              		.set	.LANCHOR4,. + 0
 610              		.type	IR1.14137, %object
 611              		.size	IR1.14137, 4
 612              	IR1.14137:
 613 0000 00000000 		.space	4
 614              		.section	.bss.IR3.14139,"aw",%nobits
 615              		.align	2
 616              		.set	.LANCHOR5,. + 0
 617              		.type	IR3.14139, %object
 618              		.size	IR3.14139, 4
 619              	IR3.14139:
 620 0000 00000000 		.space	4
 621              		.section	.bss.IR8.14138,"aw",%nobits
 622              		.align	2
 623              		.set	.LANCHOR3,. + 0
 624              		.type	IR8.14138, %object
 625              		.size	IR8.14138, 4
 626              	IR8.14138:
 627 0000 00000000 		.space	4
ARM GAS  C:\Users\alexa\AppData\Local\Temp\ccdt24iA.s 			page 12


 628              		.section	.bss.forward_proche,"aw",%nobits
 629              		.align	2
 630              		.set	.LANCHOR2,. + 0
 631              		.type	forward_proche, %object
 632              		.size	forward_proche, 4
 633              	forward_proche:
 634 0000 00000000 		.space	4
 635              		.section	.bss.i.14123,"aw",%nobits
 636              		.align	2
 637              		.set	.LANCHOR6,. + 0
 638              		.type	i.14123, %object
 639              		.size	i.14123, 4
 640              	i.14123:
 641 0000 00000000 		.space	4
 642              		.section	.bss.j.14124,"aw",%nobits
 643              		.align	2
 644              		.set	.LANCHOR7,. + 0
 645              		.type	j.14124, %object
 646              		.size	j.14124, 4
 647              	j.14124:
 648 0000 00000000 		.space	4
 649              		.section	.bss.k.14126,"aw",%nobits
 650              		.align	2
 651              		.set	.LANCHOR8,. + 0
 652              		.type	k.14126, %object
 653              		.size	k.14126, 4
 654              	k.14126:
 655 0000 00000000 		.space	4
 656              		.section	.bss.l.14125,"aw",%nobits
 657              		.align	2
 658              		.set	.LANCHOR9,. + 0
 659              		.type	l.14125, %object
 660              		.size	l.14125, 4
 661              	l.14125:
 662 0000 00000000 		.space	4
 663              		.section	.bss.left_proche,"aw",%nobits
 664              		.align	2
 665              		.set	.LANCHOR0,. + 0
 666              		.type	left_proche, %object
 667              		.size	left_proche, 4
 668              	left_proche:
 669 0000 00000000 		.space	4
 670              		.section	.bss.m.14127,"aw",%nobits
 671              		.align	2
 672              		.set	.LANCHOR10,. + 0
 673              		.type	m.14127, %object
 674              		.size	m.14127, 4
 675              	m.14127:
 676 0000 00000000 		.space	4
 677              		.section	.bss.n.14128,"aw",%nobits
 678              		.align	2
 679              		.set	.LANCHOR11,. + 0
 680              		.type	n.14128, %object
 681              		.size	n.14128, 4
 682              	n.14128:
 683 0000 00000000 		.space	4
 684              		.section	.bss.o.14129,"aw",%nobits
ARM GAS  C:\Users\alexa\AppData\Local\Temp\ccdt24iA.s 			page 13


 685              		.align	2
 686              		.set	.LANCHOR12,. + 0
 687              		.type	o.14129, %object
 688              		.size	o.14129, 4
 689              	o.14129:
 690 0000 00000000 		.space	4
 691              		.section	.bss.p.14130,"aw",%nobits
 692              		.align	2
 693              		.set	.LANCHOR13,. + 0
 694              		.type	p.14130, %object
 695              		.size	p.14130, 4
 696              	p.14130:
 697 0000 00000000 		.space	4
 698              		.section	.bss.position.14122,"aw",%nobits
 699              		.align	2
 700              		.set	.LANCHOR14,. + 0
 701              		.type	position.14122, %object
 702              		.size	position.14122, 4
 703              	position.14122:
 704 0000 00000000 		.space	4
 705              		.section	.bss.right_proche,"aw",%nobits
 706              		.align	2
 707              		.set	.LANCHOR1,. + 0
 708              		.type	right_proche, %object
 709              		.size	right_proche, 4
 710              	right_proche:
 711 0000 00000000 		.space	4
 712              		.text
 713              	.Letext0:
 714              		.file 2 "c:\\users\\alexa\\downloads\\programmes\\eclipse_e-puck2\\tools\\gcc-arm-none-eabi-7-2017
 715              		.file 3 "c:\\users\\alexa\\downloads\\programmes\\eclipse_e-puck2\\tools\\gcc-arm-none-eabi-7-2017
 716              		.file 4 "c:\\users\\alexa\\downloads\\programmes\\eclipse_e-puck2\\tools\\gcc-arm-none-eabi-7-2017
 717              		.file 5 "../../lib/e-puck2_main-processor/ChibiOS//os/rt/ports/ARMCMx/compilers/GCC/chtypes.h"
 718              		.file 6 "../../lib/e-puck2_main-processor/ChibiOS//os/rt/include/chsystypes.h"
 719              		.file 7 "../../lib/e-puck2_main-processor/ChibiOS//os/rt/include/chschd.h"
 720              		.file 8 "../../lib/e-puck2_main-processor/ChibiOS//os/ext/CMSIS/include/core_cm4.h"
 721              		.file 9 "../../lib/e-puck2_main-processor/ChibiOS//os/ext/CMSIS/ST/system_stm32f4xx.h"
 722              		.file 10 "../../lib/e-puck2_main-processor/ChibiOS//os/ext/CMSIS/ST/stm32f407xx.h"
 723              		.file 11 "../../lib/e-puck2_main-processor/ChibiOS//os/rt/ports/ARMCMx/chcore.h"
 724              		.file 12 "../../lib/e-puck2_main-processor/ChibiOS//os/rt/ports/ARMCMx/chcore_v7m.h"
 725              		.file 13 "../../lib/e-puck2_main-processor/ChibiOS//os/rt/include/chdebug.h"
 726              		.file 14 "../../lib/e-puck2_main-processor/ChibiOS//os/rt/include/chtm.h"
 727              		.file 15 "../../lib/e-puck2_main-processor/ChibiOS//os/rt/include/chstats.h"
 728              		.file 16 "../../lib/e-puck2_main-processor/ChibiOS//os/rt/include/chsem.h"
 729              		.file 17 "../../lib/e-puck2_main-processor/ChibiOS//os/rt/include/chmtx.h"
 730              		.file 18 "../../lib/e-puck2_main-processor/ChibiOS//os/rt/include/chregistry.h"
 731              		.file 19 "../../lib/e-puck2_main-processor/ChibiOS//os/rt/include/chevents.h"
 732              		.file 20 "../../lib/e-puck2_main-processor/ChibiOS//os/rt/include/chqueues.h"
 733              		.file 21 "../../lib/e-puck2_main-processor/ChibiOS//os/hal/ports/STM32/STM32F4xx/stm32_dma.h"
 734              		.file 22 "../../lib/e-puck2_main-processor/ChibiOS//os/hal/include/hal_ioblock.h"
 735              		.file 23 "../../lib/e-puck2_main-processor/ChibiOS//os/hal/ports/STM32/LLD/GPIOv2/pal_lld.h"
 736              		.file 24 "../../lib/e-puck2_main-processor/ChibiOS//os/hal/include/adc.h"
 737              		.file 25 "../../lib/e-puck2_main-processor/ChibiOS//os/hal/ports/STM32/STM32F4xx/adc_lld.h"
 738              		.file 26 "../../lib/e-puck2_main-processor/ChibiOS//os/hal/include/can.h"
 739              		.file 27 "../../lib/e-puck2_main-processor/ChibiOS//os/hal/ports/STM32/LLD/can_lld.h"
 740              		.file 28 "../../lib/e-puck2_main-processor/ChibiOS//os/hal/include/dac.h"
 741              		.file 29 "../../lib/e-puck2_main-processor/ChibiOS//os/hal/ports/STM32/LLD/DACv1/dac_lld.h"
ARM GAS  C:\Users\alexa\AppData\Local\Temp\ccdt24iA.s 			page 14


 742              		.file 30 "../../lib/e-puck2_main-processor/ChibiOS//os/hal/include/ext.h"
 743              		.file 31 "../../lib/e-puck2_main-processor/ChibiOS//os/hal/ports/STM32/LLD/ext_lld.h"
 744              		.file 32 "../../lib/e-puck2_main-processor/ChibiOS//os/hal/include/gpt.h"
 745              		.file 33 "../../lib/e-puck2_main-processor/ChibiOS//os/hal/ports/STM32/LLD/TIMv1/gpt_lld.h"
 746              		.file 34 "../../lib/e-puck2_main-processor/ChibiOS//os/hal/ports/STM32/LLD/TIMv1/stm32_tim.h"
 747              		.file 35 "../../lib/e-puck2_main-processor/ChibiOS//os/hal/include/i2c.h"
 748              		.file 36 "../../lib/e-puck2_main-processor/ChibiOS//os/hal/ports/STM32/LLD/I2Cv1/i2c_lld.h"
 749              		.file 37 "../../lib/e-puck2_main-processor/ChibiOS//os/hal/include/i2s.h"
 750              		.file 38 "../../lib/e-puck2_main-processor/ChibiOS//os/hal/ports/STM32/LLD/SPIv1/i2s_lld.h"
 751              		.file 39 "../../lib/e-puck2_main-processor/ChibiOS//os/hal/include/pwm.h"
 752              		.file 40 "../../lib/e-puck2_main-processor/ChibiOS//os/hal/ports/STM32/LLD/TIMv1/pwm_lld.h"
 753              		.file 41 "../../lib/e-puck2_main-processor/ChibiOS//os/hal/include/serial.h"
 754              		.file 42 "../../lib/e-puck2_main-processor/ChibiOS//os/hal/ports/STM32/LLD/USARTv1/serial_lld.h"
 755              		.file 43 "../../lib/e-puck2_main-processor/ChibiOS//os/hal/include/sdc.h"
 756              		.file 44 "../../lib/e-puck2_main-processor/ChibiOS//os/hal/ports/STM32/LLD/sdc_lld.h"
 757              		.file 45 "../../lib/e-puck2_main-processor/ChibiOS//os/hal/include/spi.h"
 758              		.file 46 "../../lib/e-puck2_main-processor/ChibiOS//os/hal/ports/STM32/LLD/SPIv1/spi_lld.h"
 759              		.file 47 "../../lib/e-puck2_main-processor/ChibiOS//os/hal/include/usb.h"
 760              		.file 48 "../../lib/e-puck2_main-processor/ChibiOS//os/hal/ports/STM32/LLD/OTGv1/usb_lld.h"
 761              		.file 49 "../../lib/e-puck2_main-processor/ChibiOS//os/hal/ports/STM32/LLD/OTGv1/stm32_otg.h"
 762              		.file 50 "../../lib/e-puck2_main-processor/ChibiOS//os/hal/include/serial_usb.h"
 763              		.file 51 "../../lib/e-puck2_main-processor/ChibiOS_ext/os/hal/include/../ports/STM32/STM32F4xx/dcm
 764              		.file 52 "c:\\users\\alexa\\downloads\\programmes\\eclipse_e-puck2\\tools\\gcc-arm-none-eabi-7-201
 765              		.file 53 "c:\\users\\alexa\\downloads\\programmes\\eclipse_e-puck2\\tools\\gcc-arm-none-eabi-7-201
 766              		.file 54 "c:\\users\\alexa\\downloads\\programmes\\eclipse_e-puck2\\tools\\gcc-arm-none-eabi-7-201
 767              		.file 55 "c:\\users\\alexa\\downloads\\programmes\\eclipse_e-puck2\\tools\\gcc-arm-none-eabi-7-201
 768              		.file 56 "../../lib/e-puck2_main-processor/src/msgbus/messagebus.h"
 769              		.file 57 "c:\\users\\alexa\\downloads\\programmes\\eclipse_e-puck2\\tools\\gcc-arm-none-eabi-7-201
 770              		.file 58 "c:\\users\\alexa\\downloads\\programmes\\eclipse_e-puck2\\tools\\gcc-arm-none-eabi-7-201
 771              		.file 59 "../../lib/e-puck2_main-processor/src/parameter/parameter.h"
 772              		.file 60 "./main.h"
 773              		.file 61 "../../lib/e-puck2_main-processor/src/usbcfg.h"
 774              		.file 62 "c:\\users\\alexa\\downloads\\programmes\\eclipse_e-puck2\\tools\\gcc-arm-none-eabi-7-201
 775              		.file 63 "../../lib/e-puck2_main-processor/src/sensors/proximity.h"