ARM GAS  C:\Users\alexa\AppData\Local\Temp\ccYfftda.s 			page 1


   1              		.cpu cortex-m4
   2              		.eabi_attribute 27, 1
   3              		.eabi_attribute 28, 1
   4              		.eabi_attribute 20, 1
   5              		.eabi_attribute 21, 1
   6              		.eabi_attribute 23, 3
   7              		.eabi_attribute 24, 1
   8              		.eabi_attribute 25, 1
   9              		.eabi_attribute 26, 1
  10              		.eabi_attribute 30, 2
  11              		.eabi_attribute 34, 1
  12              		.eabi_attribute 18, 4
  13              		.file	"main.c"
  14              		.text
  15              	.Ltext0:
  16              		.cfi_sections	.debug_frame
  17              		.section	.text.startup.main,"ax",%progbits
  18              		.align	1
  19              		.p2align 4,,15
  20              		.global	main
  21              		.syntax unified
  22              		.thumb
  23              		.thumb_func
  24              		.fpu fpv4-sp-d16
  25              		.type	main, %function
  26              	main:
  27              	.LFB295:
  28              		.file 1 "main.c"
  29              		.loc 1 68 0
  30              		.cfi_startproc
  31              		@ Volatile: function does not return.
  32              		@ args = 0, pretend = 0, frame = 8
  33              		@ frame_needed = 0, uses_anonymous_args = 0
  34 0000 00B5     		push	{lr}
  35              		.cfi_def_cfa_offset 4
  36              		.cfi_offset 14, -4
  37 0002 154B     		ldr	r3, .L6
  38 0004 83B0     		sub	sp, sp, #12
  39              		.cfi_def_cfa_offset 16
  40              		.loc 1 68 0
  41 0006 1B68     		ldr	r3, [r3]
  42 0008 0193     		str	r3, [sp, #4]
  43              		.loc 1 71 0
  44 000a FFF7FEFF 		bl	halInit
  45              	.LVL0:
  46              		.loc 1 72 0
  47 000e FFF7FEFF 		bl	chSysInit
  48              	.LVL1:
  49              		.loc 1 73 0
  50 0012 FFF7FEFF 		bl	mpu_init
  51              	.LVL2:
  52              	.LBB8:
  53              	.LBB9:
  54              		.loc 1 48 0
  55 0016 1149     		ldr	r1, .L6+4
  56 0018 1148     		ldr	r0, .L6+8
  57 001a FFF7FEFF 		bl	sdStart
ARM GAS  C:\Users\alexa\AppData\Local\Temp\ccYfftda.s 			page 2


  58              	.LVL3:
  59              	.LBE9:
  60              	.LBE8:
  61              		.loc 1 83 0
  62 001e FFF7FEFF 		bl	usb_start
  63              	.LVL4:
  64              	.LBB10:
  65              	.LBB11:
  66              		.loc 1 62 0
  67 0022 1049     		ldr	r1, .L6+12
  68 0024 1048     		ldr	r0, .L6+16
  69 0026 FFF7FEFF 		bl	gptStart
  70              	.LVL5:
  71              		.loc 1 64 0
  72 002a 4FF6FF71 		movw	r1, #65535
  73 002e 0E48     		ldr	r0, .L6+16
  74 0030 FFF7FEFF 		bl	gptStartContinuous
  75              	.LVL6:
  76              	.LBE11:
  77              	.LBE10:
  78              		.loc 1 87 0
  79 0034 FFF7FEFF 		bl	motors_init
  80              	.LVL7:
  81              		.loc 1 89 0
  82 0038 0C48     		ldr	r0, .L6+20
  83 003a 0D4A     		ldr	r2, .L6+24
  84 003c 0D49     		ldr	r1, .L6+28
  85 003e FFF7FEFF 		bl	messagebus_init
  86              	.LVL8:
  87              		.loc 1 93 0
  88 0042 FFF7FEFF 		bl	pi_regulator_start
  89              	.LVL9:
  90              		.loc 1 95 0
  91 0046 FFF7FEFF 		bl	proximity_start
  92              	.LVL10:
  93              		.loc 1 98 0
  94 004a 0B48     		ldr	r0, .L6+32
  95 004c FFF7FEFF 		bl	mic_start
  96              	.LVL11:
  97              	.L2:
  98              		.loc 1 122 0 discriminator 1
  99 0050 FFF7FEFF 		bl	chThdYield
 100              	.LVL12:
 101 0054 FCE7     		b	.L2
 102              	.L7:
 103 0056 00BF     		.align	2
 104              	.L6:
 105 0058 00000000 		.word	__stack_chk_guard
 106 005c 00000000 		.word	.LANCHOR0
 107 0060 00000000 		.word	SD3
 108 0064 00000000 		.word	.LANCHOR1
 109 0068 00000000 		.word	GPTD12
 110 006c 00000000 		.word	.LANCHOR4
 111 0070 00000000 		.word	.LANCHOR2
 112 0074 00000000 		.word	.LANCHOR3
 113 0078 00000000 		.word	processAudioData
 114              		.cfi_endproc
ARM GAS  C:\Users\alexa\AppData\Local\Temp\ccYfftda.s 			page 3


 115              	.LFE295:
 116              		.size	main, .-main
 117              		.section	.text.__stack_chk_fail,"ax",%progbits
 118              		.align	1
 119              		.p2align 4,,15
 120              		.global	__stack_chk_fail
 121              		.syntax unified
 122              		.thumb
 123              		.thumb_func
 124              		.fpu fpv4-sp-d16
 125              		.type	__stack_chk_fail, %function
 126              	__stack_chk_fail:
 127              	.LFB296:
 128              		.loc 1 130 0
 129              		.cfi_startproc
 130              		@ args = 0, pretend = 0, frame = 8
 131              		@ frame_needed = 0, uses_anonymous_args = 0
 132 0000 00B5     		push	{lr}
 133              		.cfi_def_cfa_offset 4
 134              		.cfi_offset 14, -4
 135 0002 084B     		ldr	r3, .L13
 136 0004 83B0     		sub	sp, sp, #12
 137              		.cfi_def_cfa_offset 16
 138              		.loc 1 130 0
 139 0006 1A68     		ldr	r2, [r3]
 140 0008 0192     		str	r2, [sp, #4]
 141              		.loc 1 131 0
 142 000a 019A     		ldr	r2, [sp, #4]
 143 000c 1B68     		ldr	r3, [r3]
 144 000e 9A42     		cmp	r2, r3
 145 0010 05D1     		bne	.L12
 146 0012 0548     		ldr	r0, .L13+4
 147              		.loc 1 132 0
 148 0014 03B0     		add	sp, sp, #12
 149              		.cfi_remember_state
 150              		.cfi_def_cfa_offset 4
 151              		@ sp needed
 152 0016 5DF804EB 		ldr	lr, [sp], #4
 153              		.cfi_restore 14
 154              		.cfi_def_cfa_offset 0
 155              		.loc 1 131 0
 156 001a FFF7FEBF 		b	chSysHalt
 157              	.LVL13:
 158              	.L12:
 159              		.cfi_restore_state
 160 001e FFF7FEFF 		bl	__stack_chk_fail
 161              	.LVL14:
 162              	.L14:
 163 0022 00BF     		.align	2
 164              	.L13:
 165 0024 00000000 		.word	__stack_chk_guard
 166 0028 00000000 		.word	.LC0
 167              		.cfi_endproc
 168              	.LFE296:
 169              		.size	__stack_chk_fail, .-__stack_chk_fail
 170              		.global	__stack_chk_guard
 171              		.global	bus_condvar
ARM GAS  C:\Users\alexa\AppData\Local\Temp\ccYfftda.s 			page 4


 172              		.global	bus_lock
 173              		.global	bus
 174              		.section	.bss.bus,"aw",%nobits
 175              		.align	2
 176              		.set	.LANCHOR4,. + 0
 177              		.type	bus, %object
 178              		.size	bus, 12
 179              	bus:
 180 0000 00000000 		.space	12
 180      00000000 
 180      00000000 
 181              		.section	.data.__stack_chk_guard,"aw",%progbits
 182              		.align	2
 183              		.type	__stack_chk_guard, %object
 184              		.size	__stack_chk_guard, 4
 185              	__stack_chk_guard:
 186 0000 96E3DEE2 		.word	-488709226
 187              		.section	.data.bus_condvar,"aw",%progbits
 188              		.align	2
 189              		.set	.LANCHOR2,. + 0
 190              		.type	bus_condvar, %object
 191              		.size	bus_condvar, 8
 192              	bus_condvar:
 193 0000 00000000 		.word	bus_condvar
 194 0004 00000000 		.word	bus_condvar
 195              		.section	.data.bus_lock,"aw",%progbits
 196              		.align	2
 197              		.set	.LANCHOR3,. + 0
 198              		.type	bus_lock, %object
 199              		.size	bus_lock, 20
 200              	bus_lock:
 201 0000 00000000 		.word	bus_lock
 202 0004 00000000 		.word	bus_lock
 203 0008 00000000 		.word	0
 204 000c 00000000 		.word	0
 205 0010 00000000 		.word	0
 206              		.section	.data.ser_cfg.14932,"aw",%progbits
 207              		.align	2
 208              		.set	.LANCHOR0,. + 0
 209              		.type	ser_cfg.14932, %object
 210              		.size	ser_cfg.14932, 12
 211              	ser_cfg.14932:
 212 0000 00C20100 		.word	115200
 213 0004 0000     		.short	0
 214 0006 0000     		.short	0
 215 0008 0000     		.short	0
 216 000a 0000     		.space	2
 217              		.section	.rodata.__stack_chk_fail.str1.4,"aMS",%progbits,1
 218              		.align	2
 219              	.LC0:
 220 0000 53746163 		.ascii	"Stack smashing detected\000"
 220      6B20736D 
 220      61736869 
 220      6E672064 
 220      65746563 
 221              		.section	.rodata.gpt12cfg.14936,"a",%progbits
 222              		.align	2
ARM GAS  C:\Users\alexa\AppData\Local\Temp\ccYfftda.s 			page 5


 223              		.set	.LANCHOR1,. + 0
 224              		.type	gpt12cfg.14936, %object
 225              		.size	gpt12cfg.14936, 16
 226              	gpt12cfg.14936:
 227 0000 40420F00 		.word	1000000
 228 0004 00000000 		.word	0
 229 0008 00000000 		.word	0
 230 000c 00000000 		.word	0
 231              		.text
 232              	.Letext0:
 233              		.file 2 "c:\\users\\alexa\\downloads\\programmes\\eclipse_e-puck2\\tools\\gcc-arm-none-eabi-7-2017
 234              		.file 3 "c:\\users\\alexa\\downloads\\programmes\\eclipse_e-puck2\\tools\\gcc-arm-none-eabi-7-2017
 235              		.file 4 "c:\\users\\alexa\\downloads\\programmes\\eclipse_e-puck2\\tools\\gcc-arm-none-eabi-7-2017
 236              		.file 5 "c:\\users\\alexa\\downloads\\programmes\\eclipse_e-puck2\\tools\\gcc-arm-none-eabi-7-2017
 237              		.file 6 "c:\\users\\alexa\\downloads\\programmes\\eclipse_e-puck2\\tools\\gcc-arm-none-eabi-7-2017
 238              		.file 7 "c:\\users\\alexa\\downloads\\programmes\\eclipse_e-puck2\\tools\\gcc-arm-none-eabi-7-2017
 239              		.file 8 "c:\\users\\alexa\\downloads\\programmes\\eclipse_e-puck2\\tools\\gcc-arm-none-eabi-7-2017
 240              		.file 9 "../../lib/e-puck2_main-processor/ChibiOS//os/rt/ports/ARMCMx/compilers/GCC/chtypes.h"
 241              		.file 10 "../../lib/e-puck2_main-processor/ChibiOS//os/rt/include/chsystypes.h"
 242              		.file 11 "../../lib/e-puck2_main-processor/ChibiOS//os/rt/include/chschd.h"
 243              		.file 12 "../../lib/e-puck2_main-processor/ChibiOS//os/ext/CMSIS/include/core_cm4.h"
 244              		.file 13 "../../lib/e-puck2_main-processor/ChibiOS//os/ext/CMSIS/ST/system_stm32f4xx.h"
 245              		.file 14 "../../lib/e-puck2_main-processor/ChibiOS//os/ext/CMSIS/ST/stm32f407xx.h"
 246              		.file 15 "../../lib/e-puck2_main-processor/ChibiOS//os/rt/ports/ARMCMx/chcore.h"
 247              		.file 16 "../../lib/e-puck2_main-processor/ChibiOS//os/rt/ports/ARMCMx/chcore_v7m.h"
 248              		.file 17 "../../lib/e-puck2_main-processor/ChibiOS//os/rt/include/chdebug.h"
 249              		.file 18 "../../lib/e-puck2_main-processor/ChibiOS//os/rt/include/chtm.h"
 250              		.file 19 "../../lib/e-puck2_main-processor/ChibiOS//os/rt/include/chstats.h"
 251              		.file 20 "../../lib/e-puck2_main-processor/ChibiOS//os/rt/include/chsem.h"
 252              		.file 21 "../../lib/e-puck2_main-processor/ChibiOS//os/rt/include/chmtx.h"
 253              		.file 22 "../../lib/e-puck2_main-processor/ChibiOS//os/rt/include/chregistry.h"
 254              		.file 23 "../../lib/e-puck2_main-processor/ChibiOS//os/rt/include/chcond.h"
 255              		.file 24 "../../lib/e-puck2_main-processor/ChibiOS//os/rt/include/chevents.h"
 256              		.file 25 "../../lib/e-puck2_main-processor/ChibiOS//os/rt/include/chqueues.h"
 257              		.file 26 "../../lib/e-puck2_main-processor/ChibiOS//os/hal/ports/STM32/STM32F4xx/stm32_dma.h"
 258              		.file 27 "../../lib/e-puck2_main-processor/ChibiOS//os/hal/include/hal_ioblock.h"
 259              		.file 28 "../../lib/e-puck2_main-processor/ChibiOS//os/hal/ports/STM32/LLD/GPIOv2/pal_lld.h"
 260              		.file 29 "../../lib/e-puck2_main-processor/ChibiOS//os/hal/include/adc.h"
 261              		.file 30 "../../lib/e-puck2_main-processor/ChibiOS//os/hal/ports/STM32/STM32F4xx/adc_lld.h"
 262              		.file 31 "../../lib/e-puck2_main-processor/ChibiOS//os/hal/include/can.h"
 263              		.file 32 "../../lib/e-puck2_main-processor/ChibiOS//os/hal/ports/STM32/LLD/can_lld.h"
 264              		.file 33 "../../lib/e-puck2_main-processor/ChibiOS//os/hal/include/dac.h"
 265              		.file 34 "../../lib/e-puck2_main-processor/ChibiOS//os/hal/ports/STM32/LLD/DACv1/dac_lld.h"
 266              		.file 35 "../../lib/e-puck2_main-processor/ChibiOS//os/hal/include/ext.h"
 267              		.file 36 "../../lib/e-puck2_main-processor/ChibiOS//os/hal/ports/STM32/LLD/ext_lld.h"
 268              		.file 37 "../../lib/e-puck2_main-processor/ChibiOS//os/hal/include/gpt.h"
 269              		.file 38 "../../lib/e-puck2_main-processor/ChibiOS//os/hal/ports/STM32/LLD/TIMv1/gpt_lld.h"
 270              		.file 39 "../../lib/e-puck2_main-processor/ChibiOS//os/hal/ports/STM32/LLD/TIMv1/stm32_tim.h"
 271              		.file 40 "../../lib/e-puck2_main-processor/ChibiOS//os/hal/include/i2c.h"
 272              		.file 41 "../../lib/e-puck2_main-processor/ChibiOS//os/hal/ports/STM32/LLD/I2Cv1/i2c_lld.h"
 273              		.file 42 "../../lib/e-puck2_main-processor/ChibiOS//os/hal/include/i2s.h"
 274              		.file 43 "../../lib/e-puck2_main-processor/ChibiOS//os/hal/ports/STM32/LLD/SPIv1/i2s_lld.h"
 275              		.file 44 "../../lib/e-puck2_main-processor/ChibiOS//os/hal/include/pwm.h"
 276              		.file 45 "../../lib/e-puck2_main-processor/ChibiOS//os/hal/ports/STM32/LLD/TIMv1/pwm_lld.h"
 277              		.file 46 "../../lib/e-puck2_main-processor/ChibiOS//os/hal/include/serial.h"
 278              		.file 47 "../../lib/e-puck2_main-processor/ChibiOS//os/hal/ports/STM32/LLD/USARTv1/serial_lld.h"
 279              		.file 48 "../../lib/e-puck2_main-processor/ChibiOS//os/hal/include/sdc.h"
ARM GAS  C:\Users\alexa\AppData\Local\Temp\ccYfftda.s 			page 6


 280              		.file 49 "../../lib/e-puck2_main-processor/ChibiOS//os/hal/ports/STM32/LLD/sdc_lld.h"
 281              		.file 50 "../../lib/e-puck2_main-processor/ChibiOS//os/hal/include/spi.h"
 282              		.file 51 "../../lib/e-puck2_main-processor/ChibiOS//os/hal/ports/STM32/LLD/SPIv1/spi_lld.h"
 283              		.file 52 "../../lib/e-puck2_main-processor/ChibiOS//os/hal/include/usb.h"
 284              		.file 53 "../../lib/e-puck2_main-processor/ChibiOS//os/hal/ports/STM32/LLD/OTGv1/usb_lld.h"
 285              		.file 54 "../../lib/e-puck2_main-processor/ChibiOS//os/hal/ports/STM32/LLD/OTGv1/stm32_otg.h"
 286              		.file 55 "../../lib/e-puck2_main-processor/ChibiOS//os/hal/include/serial_usb.h"
 287              		.file 56 "../../lib/e-puck2_main-processor/src/usbcfg.h"
 288              		.file 57 "../../lib/e-puck2_main-processor/ChibiOS_ext/os/hal/include/../ports/STM32/STM32F4xx/dcm
 289              		.file 58 "c:\\users\\alexa\\downloads\\programmes\\eclipse_e-puck2\\tools\\gcc-arm-none-eabi-7-201
 290              		.file 59 "../../lib/e-puck2_main-processor/src/msgbus/messagebus.h"
 291              		.file 60 "../../lib/e-puck2_main-processor/src/parameter/parameter.h"
 292              		.file 61 "./main.h"
 293              		.file 62 "c:\\users\\alexa\\downloads\\programmes\\eclipse_e-puck2\\tools\\gcc-arm-none-eabi-7-201
 294              		.file 63 "../../lib/e-puck2_main-processor/ChibiOS//os/rt/include/chsys.h"
 295              		.file 64 "../../lib/e-puck2_main-processor/ChibiOS//os/hal/include/hal.h"
 296              		.file 65 "../../lib/e-puck2_main-processor/src/memory_protection.h"
 297              		.file 66 "../../lib/e-puck2_main-processor/src/motors.h"
 298              		.file 67 "./pi_regulator.h"
 299              		.file 68 "../../lib/e-puck2_main-processor/src/sensors/proximity.h"
 300              		.file 69 "../../lib/e-puck2_main-processor/src/audio/microphone.h"
 301              		.file 70 "../../lib/e-puck2_main-processor/ChibiOS//os/rt/include/chthreads.h"