ARM GAS  C:\Users\alexa\AppData\Local\Temp\cc4mAXsQ.s 			page 1


   1              		.cpu cortex-m4
   2              		.eabi_attribute 27, 1
   3              		.eabi_attribute 28, 1
   4              		.eabi_attribute 20, 1
   5              		.eabi_attribute 21, 1
   6              		.eabi_attribute 23, 3
   7              		.eabi_attribute 24, 1
   8              		.eabi_attribute 25, 1
   9              		.eabi_attribute 26, 1
  10              		.eabi_attribute 30, 2
  11              		.eabi_attribute 34, 1
  12              		.eabi_attribute 18, 4
  13              		.file	"pi_regulator.c"
  14              		.text
  15              	.Ltext0:
  16              		.cfi_sections	.debug_frame
  17              		.global	__aeabi_i2d
  18              		.global	__aeabi_dcmplt
  19              		.section	.text.pi_regulator,"ax",%progbits
  20              		.align	1
  21              		.p2align 4,,15
  22              		.global	pi_regulator
  23              		.syntax unified
  24              		.thumb
  25              		.thumb_func
  26              		.fpu fpv4-sp-d16
  27              		.type	pi_regulator, %function
  28              	pi_regulator:
  29              	.LFB257:
  30              		.file 1 "pi_regulator.c"
  31              		.loc 1 15 0
  32              		.cfi_startproc
  33              		@ args = 0, pretend = 0, frame = 8
  34              		@ frame_needed = 0, uses_anonymous_args = 0
  35              	.LVL0:
  36 0000 70B5     		push	{r4, r5, r6, lr}
  37              		.cfi_def_cfa_offset 16
  38              		.cfi_offset 4, -16
  39              		.cfi_offset 5, -12
  40              		.cfi_offset 6, -8
  41              		.cfi_offset 14, -4
  42              		.loc 1 23 0
  43 0002 BDEEC00A 		vcvt.s32.f32	s0, s0
  44              	.LVL1:
  45              		.loc 1 15 0
  46 0006 224D     		ldr	r5, .L8
  47              		.loc 1 23 0
  48 0008 10EE103A 		vmov	r3, s0	@ int
  49              		.loc 1 15 0
  50 000c 82B0     		sub	sp, sp, #8
  51              		.cfi_def_cfa_offset 24
  52              		.loc 1 23 0
  53 000e 1CB2     		sxth	r4, r3
  54              		.loc 1 27 0
  55 0010 2046     		mov	r0, r4
  56              		.loc 1 15 0
  57 0012 2B68     		ldr	r3, [r5]
ARM GAS  C:\Users\alexa\AppData\Local\Temp\cc4mAXsQ.s 			page 2


  58 0014 0193     		str	r3, [sp, #4]
  59              	.LVL2:
  60              		.loc 1 27 0
  61 0016 FFF7FEFF 		bl	__aeabi_i2d
  62              	.LVL3:
  63 001a 21F00043 		bic	r3, r1, #-2147483648
  64 001e 1946     		mov	r1, r3
  65 0020 0022     		movs	r2, #0
  66 0022 1C4B     		ldr	r3, .L8+4
  67 0024 FFF7FEFF 		bl	__aeabi_dcmplt
  68              	.LVL4:
  69 0028 68BB     		cbnz	r0, .L4
  70              		.loc 1 32 0
  71 002a 1B49     		ldr	r1, .L8+8
  72              		.loc 1 31 0
  73 002c 1B48     		ldr	r0, .L8+12
  74              		.loc 1 32 0
  75 002e 0A88     		ldrh	r2, [r1]
  76              		.loc 1 31 0
  77 0030 0688     		ldrh	r6, [r0]
  78              		.loc 1 35 0
  79 0032 9FED1B6A 		vldr.32	s12, .L8+16
  80 0036 DFED1B6A 		vldr.32	s13, .L8+20
  81              		.loc 1 33 0
  82 003a 0480     		strh	r4, [r0]	@ movhi
  83              		.loc 1 31 0
  84 003c A3B2     		uxth	r3, r4
  85              		.loc 1 32 0
  86 003e 1A44     		add	r2, r2, r3
  87 0040 12B2     		sxth	r2, r2
  88              		.loc 1 35 0
  89 0042 07EE902A 		vmov	s15, r2	@ int
  90 0046 07EE104A 		vmov	s14, r4	@ int
  91 004a F8EEE77A 		vcvt.f32.s32	s15, s15
  92 004e B8EEC77A 		vcvt.f32.s32	s14, s14
  93 0052 67EE867A 		vmul.f32	s15, s15, s12
  94              		.loc 1 31 0
  95 0056 9B1B     		subs	r3, r3, r6
  96 0058 1BB2     		sxth	r3, r3
  97              		.loc 1 35 0
  98 005a E7EE267A 		vfma.f32	s15, s14, s13
  99              		.loc 1 32 0
 100 005e 0A80     		strh	r2, [r1]	@ movhi
 101              		.loc 1 35 0
 102 0060 07EE103A 		vmov	s14, r3	@ int
 103 0064 B8EEC77A 		vcvt.f32.s32	s14, s14
 104 0068 F3EE046A 		vmov.f32	s13, #2.0e+1
 105 006c E7EE267A 		vfma.f32	s15, s14, s13
 106 0070 FDEEE77A 		vcvt.s32.f32	s15, s15
 107 0074 17EE903A 		vmov	r3, s15	@ int
 108 0078 18B2     		sxth	r0, r3
 109              	.LVL5:
 110              	.L2:
 111              		.loc 1 37 0
 112 007a 019A     		ldr	r2, [sp, #4]
 113 007c 2B68     		ldr	r3, [r5]
 114 007e 9A42     		cmp	r2, r3
ARM GAS  C:\Users\alexa\AppData\Local\Temp\cc4mAXsQ.s 			page 3


 115 0080 03D1     		bne	.L7
 116 0082 02B0     		add	sp, sp, #8
 117              		.cfi_remember_state
 118              		.cfi_def_cfa_offset 16
 119              		@ sp needed
 120 0084 70BD     		pop	{r4, r5, r6, pc}
 121              	.LVL6:
 122              	.L4:
 123              		.cfi_restore_state
 124              		.loc 1 28 0
 125 0086 0020     		movs	r0, #0
 126 0088 F7E7     		b	.L2
 127              	.LVL7:
 128              	.L7:
 129              		.loc 1 37 0
 130 008a FFF7FEFF 		bl	__stack_chk_fail
 131              	.LVL8:
 132              	.L9:
 133 008e 00BF     		.align	2
 134              	.L8:
 135 0090 00000000 		.word	__stack_chk_guard
 136 0094 00003440 		.word	1077149696
 137 0098 00000000 		.word	.LANCHOR1
 138 009c 00000000 		.word	.LANCHOR0
 139 00a0 17B7D138 		.word	953267991
 140 00a4 3333333F 		.word	1060320051
 141              		.cfi_endproc
 142              	.LFE257:
 143              		.size	pi_regulator, .-pi_regulator
 144              		.section	.text.PiRegulator,"ax",%progbits
 145              		.align	1
 146              		.p2align 4,,15
 147              		.syntax unified
 148              		.thumb
 149              		.thumb_func
 150              		.fpu fpv4-sp-d16
 151              		.type	PiRegulator, %function
 152              	PiRegulator:
 153              	.LFB258:
 154              		.loc 1 40 0
 155              		.cfi_startproc
 156              		@ args = 0, pretend = 0, frame = 8
 157              		@ frame_needed = 0, uses_anonymous_args = 0
 158              	.LVL9:
 159 0000 2DE9F04F 		push	{r4, r5, r6, r7, r8, r9, r10, fp, lr}
 160              		.cfi_def_cfa_offset 36
 161              		.cfi_offset 4, -36
 162              		.cfi_offset 5, -32
 163              		.cfi_offset 6, -28
 164              		.cfi_offset 7, -24
 165              		.cfi_offset 8, -20
 166              		.cfi_offset 9, -16
 167              		.cfi_offset 10, -12
 168              		.cfi_offset 11, -8
 169              		.cfi_offset 14, -4
 170              	.LBB48:
 171              	.LBB49:
ARM GAS  C:\Users\alexa\AppData\Local\Temp\cc4mAXsQ.s 			page 4


 172              		.file 2 "../../lib/e-puck2_main-processor/ChibiOS//os/rt/include/chregistry.h"
 173              		.loc 2 135 0
 174 0004 2B4D     		ldr	r5, .L20
 175              	.LBE49:
 176              	.LBE48:
 177              		.loc 1 40 0
 178 0006 2C4B     		ldr	r3, .L20+4
 179              	.LBB52:
 180              	.LBB50:
 181              		.loc 2 135 0
 182 0008 AA69     		ldr	r2, [r5, #24]
 183 000a 2C49     		ldr	r1, .L20+8
 184              	.LBE50:
 185              	.LBE52:
 186              		.loc 1 40 0
 187 000c 1B68     		ldr	r3, [r3]
 188 000e 2C4F     		ldr	r7, .L20+12
 189 0010 DFF8B0A0 		ldr	r10, .L20+16
 190              	.LBB53:
 191              	.LBB54:
 192              	.LBB55:
 193              	.LBB56:
 194              		.file 3 "../../lib/e-puck2_main-processor/ChibiOS//os/rt/include/chsys.h"
 195              		.loc 3 367 0
 196 0014 DFF8B0B0 		ldr	fp, .L20+20
 197              	.LBE56:
 198              	.LBE55:
 199              	.LBE54:
 200              	.LBE53:
 201              	.LBB82:
 202              	.LBB51:
 203              		.loc 2 135 0
 204 0018 9161     		str	r1, [r2, #24]
 205              	.LBE51:
 206              	.LBE82:
 207              		.loc 1 40 0
 208 001a 83B0     		sub	sp, sp, #12
 209              		.cfi_def_cfa_offset 48
 210              	.LBB83:
 211              	.LBB79:
 212              	.LBB65:
 213              	.LBB66:
 214              	.LBB67:
 215              	.LBB68:
 216              	.LBB69:
 217              		.file 4 "../../lib/e-puck2_main-processor/ChibiOS//os/ext/CMSIS/include/core_cmFunc.h"
 218              		.loc 4 546 0
 219 001c 4FF02009 		mov	r9, #32
 220              	.LBE69:
 221              	.LBE68:
 222              	.LBE67:
 223              	.LBE66:
 224              	.LBE65:
 225              	.LBE79:
 226              	.LBE83:
 227              		.loc 1 40 0
 228 0020 0193     		str	r3, [sp, #4]
ARM GAS  C:\Users\alexa\AppData\Local\Temp\cc4mAXsQ.s 			page 5


 229              	.LVL10:
 230              	.LBB84:
 231              	.LBB80:
 232              	.LBB74:
 233              	.LBB63:
 234              	.LBB57:
 235              	.LBB58:
 236              	.LBB59:
 237              		.loc 4 546 0
 238 0022 4FF00008 		mov	r8, #0
 239              	.LVL11:
 240              	.L11:
 241              	.LBE59:
 242              	.LBE58:
 243              	.LBE57:
 244              	.LBE63:
 245              	.LBE74:
 246              	.LBE80:
 247              	.LBE84:
 248              		.loc 1 51 0
 249 0026 FFF7FEFF 		bl	get_position
 250              	.LVL12:
 251 002a 0028     		cmp	r0, #0
 252 002c FBD1     		bne	.L11
 253              	.L19:
 254              	.LVL13:
 255              		.loc 1 51 0 is_stmt 0 discriminator 1
 256 002e 3B78     		ldrb	r3, [r7]	@ zero_extendqisi2
 257 0030 002B     		cmp	r3, #0
 258 0032 F8D0     		beq	.L11
 259              	.LBB85:
 260              	.LBB81:
 261              	.LBB75:
 262              	.LBB73:
 263              	.LBB72:
 264              	.LBB71:
 265              	.LBB70:
 266              		.loc 4 546 0 is_stmt 1
 267              		.syntax unified
 268              	@ 546 "../../lib/e-puck2_main-processor/ChibiOS//os/ext/CMSIS/include/core_cmFunc.h" 1
 269 0034 89F31188 		MSR basepri, r9
 270              	@ 0 "" 2
 271              	.LVL14:
 272              		.thumb
 273              		.syntax unified
 274              	.LBE70:
 275              	.LBE71:
 276              	.LBE72:
 277              		.loc 3 349 0
 278 0038 FFF7FEFF 		bl	_stats_start_measure_crit_thd
 279              	.LVL15:
 280              		.loc 3 350 0
 281 003c FFF7FEFF 		bl	_dbg_check_lock
 282              	.LVL16:
 283              	.LBE73:
 284              	.LBE75:
 285              	.LBB76:
ARM GAS  C:\Users\alexa\AppData\Local\Temp\cc4mAXsQ.s 			page 6


 286              	.LBB77:
 287              		.file 5 "../../lib/e-puck2_main-processor/ChibiOS//os/rt/include/chvt.h"
 288              		.loc 5 231 0
 289 0040 AE6A     		ldr	r6, [r5, #40]
 290              	.LBE77:
 291              	.LBE76:
 292              	.LBB78:
 293              	.LBB64:
 294              		.loc 3 360 0
 295 0042 FFF7FEFF 		bl	_dbg_check_unlock
 296              	.LVL17:
 297              		.loc 3 361 0
 298 0046 FFF7FEFF 		bl	_stats_stop_measure_crit_thd
 299              	.LVL18:
 300              		.loc 3 367 0
 301 004a 2B68     		ldr	r3, [r5]
 302 004c AB42     		cmp	r3, r5
 303 004e 07D0     		beq	.L13
 304 0050 AA69     		ldr	r2, [r5, #24]
 305 0052 9B68     		ldr	r3, [r3, #8]
 306 0054 9268     		ldr	r2, [r2, #8]
 307 0056 9A42     		cmp	r2, r3
 308 0058 02D2     		bcs	.L13
 309 005a 5846     		mov	r0, fp
 310 005c FFF7FEFF 		bl	chSysHalt
 311              	.LVL19:
 312              	.L13:
 313              	.LBB62:
 314              	.LBB61:
 315              	.LBB60:
 316              		.loc 4 546 0
 317              		.syntax unified
 318              	@ 546 "../../lib/e-puck2_main-processor/ChibiOS//os/ext/CMSIS/include/core_cmFunc.h" 1
 319 0060 88F31188 		MSR basepri, r8
 320              	@ 0 "" 2
 321              	.LVL20:
 322              		.thumb
 323              		.syntax unified
 324              	.LBE60:
 325              	.LBE61:
 326              	.LBE62:
 327              	.LBE64:
 328              	.LBE78:
 329              	.LBE81:
 330              	.LBE85:
 331              		.loc 1 54 0
 332 0064 0123     		movs	r3, #1
 333 0066 8AF80030 		strb	r3, [r10]
 334              		.loc 1 56 0
 335 006a FFF7FEFF 		bl	clear_leds
 336              	.LVL21:
 337              		.loc 1 59 0
 338 006e FFF7FEFF 		bl	get_side
 339              	.LVL22:
 340 0072 07EE900A 		vmov	s15, r0	@ int
 341 0076 B8EEE70A 		vcvt.f32.s32	s0, s15
 342 007a FFF7FEFF 		bl	pi_regulator
ARM GAS  C:\Users\alexa\AppData\Local\Temp\cc4mAXsQ.s 			page 7


 343              	.LVL23:
 344 007e 6FF02004 		mvn	r4, #32
 345 0082 8442     		cmp	r4, r0
 346 0084 B8BF     		it	lt
 347 0086 0446     		movlt	r4, r0
 348 0088 24B2     		sxth	r4, r4
 349              	.LVL24:
 350              		.loc 1 68 0
 351 008a 212C     		cmp	r4, #33
 352 008c A8BF     		it	ge
 353 008e 2124     		movge	r4, #33
 354              	.LVL25:
 355 0090 04F5C870 		add	r0, r4, #400
 356              	.LVL26:
 357 0094 FFF7FEFF 		bl	right_motor_set_speed
 358              	.LVL27:
 359              		.loc 1 69 0
 360 0098 C4F5C870 		rsb	r0, r4, #400
 361 009c FFF7FEFF 		bl	left_motor_set_speed
 362              	.LVL28:
 363              		.loc 1 71 0
 364 00a0 06F10A01 		add	r1, r6, #10
 365 00a4 3046     		mov	r0, r6
 366 00a6 FFF7FEFF 		bl	chThdSleepUntilWindowed
 367              	.LVL29:
 368              		.loc 1 51 0
 369 00aa FFF7FEFF 		bl	get_position
 370              	.LVL30:
 371 00ae 0028     		cmp	r0, #0
 372 00b0 B9D1     		bne	.L11
 373 00b2 BCE7     		b	.L19
 374              	.L21:
 375              		.align	2
 376              	.L20:
 377 00b4 00000000 		.word	ch
 378 00b8 00000000 		.word	__stack_chk_guard
 379 00bc 00000000 		.word	.LANCHOR2
 380 00c0 00000000 		.word	program_started
 381 00c4 00000000 		.word	first_stop
 382 00c8 00000000 		.word	.LANCHOR3
 383              		.cfi_endproc
 384              	.LFE258:
 385              		.size	PiRegulator, .-PiRegulator
 386              		.section	.text.pi_regulator_start,"ax",%progbits
 387              		.align	1
 388              		.p2align 4,,15
 389              		.global	pi_regulator_start
 390              		.syntax unified
 391              		.thumb
 392              		.thumb_func
 393              		.fpu fpv4-sp-d16
 394              		.type	pi_regulator_start, %function
 395              	pi_regulator_start:
 396              	.LFB259:
 397              		.loc 1 78 0
 398              		.cfi_startproc
 399              		@ args = 0, pretend = 0, frame = 8
ARM GAS  C:\Users\alexa\AppData\Local\Temp\cc4mAXsQ.s 			page 8


 400              		@ frame_needed = 0, uses_anonymous_args = 0
 401 0000 10B5     		push	{r4, lr}
 402              		.cfi_def_cfa_offset 8
 403              		.cfi_offset 4, -8
 404              		.cfi_offset 14, -4
 405 0002 0A4C     		ldr	r4, .L26
 406              		.loc 1 79 0
 407 0004 0A4B     		ldr	r3, .L26+4
 408              		.loc 1 78 0
 409 0006 2268     		ldr	r2, [r4]
 410              		.loc 1 79 0
 411 0008 0A48     		ldr	r0, .L26+8
 412              		.loc 1 78 0
 413 000a 84B0     		sub	sp, sp, #16
 414              		.cfi_def_cfa_offset 24
 415              		.loc 1 79 0
 416 000c 4FF41E71 		mov	r1, #632
 417              		.loc 1 78 0
 418 0010 0392     		str	r2, [sp, #12]
 419              		.loc 1 79 0
 420 0012 0022     		movs	r2, #0
 421 0014 0092     		str	r2, [sp]
 422 0016 4022     		movs	r2, #64
 423 0018 FFF7FEFF 		bl	chThdCreateStatic
 424              	.LVL31:
 425              		.loc 1 80 0
 426 001c 039A     		ldr	r2, [sp, #12]
 427 001e 2368     		ldr	r3, [r4]
 428 0020 9A42     		cmp	r2, r3
 429 0022 01D1     		bne	.L25
 430 0024 04B0     		add	sp, sp, #16
 431              		.cfi_remember_state
 432              		.cfi_def_cfa_offset 8
 433              		@ sp needed
 434 0026 10BD     		pop	{r4, pc}
 435              	.L25:
 436              		.cfi_restore_state
 437 0028 FFF7FEFF 		bl	__stack_chk_fail
 438              	.LVL32:
 439              	.L27:
 440              		.align	2
 441              	.L26:
 442 002c 00000000 		.word	__stack_chk_guard
 443 0030 00000000 		.word	PiRegulator
 444 0034 00000000 		.word	.LANCHOR4
 445              		.cfi_endproc
 446              	.LFE259:
 447              		.size	pi_regulator_start, .-pi_regulator_start
 448              		.section	.bss.integral.11938,"aw",%nobits
 449              		.align	1
 450              		.set	.LANCHOR1,. + 0
 451              		.type	integral.11938, %object
 452              		.size	integral.11938, 2
 453              	integral.11938:
 454 0000 0000     		.space	2
 455              		.section	.bss.last_error.11936,"aw",%nobits
 456              		.align	1
ARM GAS  C:\Users\alexa\AppData\Local\Temp\cc4mAXsQ.s 			page 9


 457              		.set	.LANCHOR0,. + 0
 458              		.type	last_error.11936, %object
 459              		.size	last_error.11936, 2
 460              	last_error.11936:
 461 0000 0000     		.space	2
 462              		.section	.bss.waPiRegulator,"aw",%nobits
 463              		.align	3
 464              		.set	.LANCHOR4,. + 0
 465              		.type	waPiRegulator, %object
 466              		.size	waPiRegulator, 632
 467              	waPiRegulator:
 468 0000 00000000 		.space	632
 468      00000000 
 468      00000000 
 468      00000000 
 468      00000000 
 469              		.section	.rodata.__FUNCTION__.11944,"a",%progbits
 470              		.align	2
 471              		.set	.LANCHOR2,. + 0
 472              		.type	__FUNCTION__.11944, %object
 473              		.size	__FUNCTION__.11944, 12
 474              	__FUNCTION__.11944:
 475 0000 50695265 		.ascii	"PiRegulator\000"
 475      67756C61 
 475      746F7200 
 476              		.section	.rodata.__func__.7153,"a",%progbits
 477              		.align	2
 478              		.set	.LANCHOR3,. + 0
 479              		.type	__func__.7153, %object
 480              		.size	__func__.7153, 12
 481              	__func__.7153:
 482 0000 63685379 		.ascii	"chSysUnlock\000"
 482      73556E6C 
 482      6F636B00 
 483              		.text
 484              	.Letext0:
 485              		.file 6 "c:\\users\\alexa\\downloads\\programmes\\eclipse_e-puck2\\tools\\gcc-arm-none-eabi-7-2017
 486              		.file 7 "c:\\users\\alexa\\downloads\\programmes\\eclipse_e-puck2\\tools\\gcc-arm-none-eabi-7-2017
 487              		.file 8 "c:\\users\\alexa\\downloads\\programmes\\eclipse_e-puck2\\tools\\gcc-arm-none-eabi-7-2017
 488              		.file 9 "../../lib/e-puck2_main-processor/ChibiOS//os/rt/ports/ARMCMx/compilers/GCC/chtypes.h"
 489              		.file 10 "../../lib/e-puck2_main-processor/ChibiOS//os/rt/include/chsystypes.h"
 490              		.file 11 "../../lib/e-puck2_main-processor/ChibiOS//os/rt/include/chschd.h"
 491              		.file 12 "../../lib/e-puck2_main-processor/ChibiOS//os/ext/CMSIS/include/core_cm4.h"
 492              		.file 13 "../../lib/e-puck2_main-processor/ChibiOS//os/ext/CMSIS/ST/system_stm32f4xx.h"
 493              		.file 14 "../../lib/e-puck2_main-processor/ChibiOS//os/ext/CMSIS/ST/stm32f407xx.h"
 494              		.file 15 "../../lib/e-puck2_main-processor/ChibiOS//os/rt/ports/ARMCMx/chcore.h"
 495              		.file 16 "../../lib/e-puck2_main-processor/ChibiOS//os/rt/ports/ARMCMx/chcore_v7m.h"
 496              		.file 17 "../../lib/e-puck2_main-processor/ChibiOS//os/rt/include/chdebug.h"
 497              		.file 18 "../../lib/e-puck2_main-processor/ChibiOS//os/rt/include/chtm.h"
 498              		.file 19 "../../lib/e-puck2_main-processor/ChibiOS//os/rt/include/chstats.h"
 499              		.file 20 "../../lib/e-puck2_main-processor/ChibiOS//os/rt/include/chsem.h"
 500              		.file 21 "../../lib/e-puck2_main-processor/ChibiOS//os/rt/include/chmtx.h"
 501              		.file 22 "../../lib/e-puck2_main-processor/ChibiOS//os/rt/include/chevents.h"
 502              		.file 23 "../../lib/e-puck2_main-processor/ChibiOS//os/rt/include/chqueues.h"
 503              		.file 24 "../../lib/e-puck2_main-processor/ChibiOS//os/hal/ports/STM32/STM32F4xx/stm32_dma.h"
 504              		.file 25 "../../lib/e-puck2_main-processor/ChibiOS//os/hal/include/hal_ioblock.h"
 505              		.file 26 "../../lib/e-puck2_main-processor/ChibiOS//os/hal/ports/STM32/LLD/GPIOv2/pal_lld.h"
ARM GAS  C:\Users\alexa\AppData\Local\Temp\cc4mAXsQ.s 			page 10


 506              		.file 27 "../../lib/e-puck2_main-processor/ChibiOS//os/hal/include/adc.h"
 507              		.file 28 "../../lib/e-puck2_main-processor/ChibiOS//os/hal/ports/STM32/STM32F4xx/adc_lld.h"
 508              		.file 29 "../../lib/e-puck2_main-processor/ChibiOS//os/hal/include/can.h"
 509              		.file 30 "../../lib/e-puck2_main-processor/ChibiOS//os/hal/ports/STM32/LLD/can_lld.h"
 510              		.file 31 "../../lib/e-puck2_main-processor/ChibiOS//os/hal/include/dac.h"
 511              		.file 32 "../../lib/e-puck2_main-processor/ChibiOS//os/hal/ports/STM32/LLD/DACv1/dac_lld.h"
 512              		.file 33 "../../lib/e-puck2_main-processor/ChibiOS//os/hal/include/ext.h"
 513              		.file 34 "../../lib/e-puck2_main-processor/ChibiOS//os/hal/ports/STM32/LLD/ext_lld.h"
 514              		.file 35 "../../lib/e-puck2_main-processor/ChibiOS//os/hal/include/gpt.h"
 515              		.file 36 "../../lib/e-puck2_main-processor/ChibiOS//os/hal/ports/STM32/LLD/TIMv1/gpt_lld.h"
 516              		.file 37 "../../lib/e-puck2_main-processor/ChibiOS//os/hal/ports/STM32/LLD/TIMv1/stm32_tim.h"
 517              		.file 38 "../../lib/e-puck2_main-processor/ChibiOS//os/hal/include/i2c.h"
 518              		.file 39 "../../lib/e-puck2_main-processor/ChibiOS//os/hal/ports/STM32/LLD/I2Cv1/i2c_lld.h"
 519              		.file 40 "../../lib/e-puck2_main-processor/ChibiOS//os/hal/include/i2s.h"
 520              		.file 41 "../../lib/e-puck2_main-processor/ChibiOS//os/hal/ports/STM32/LLD/SPIv1/i2s_lld.h"
 521              		.file 42 "../../lib/e-puck2_main-processor/ChibiOS//os/hal/include/pwm.h"
 522              		.file 43 "../../lib/e-puck2_main-processor/ChibiOS//os/hal/ports/STM32/LLD/TIMv1/pwm_lld.h"
 523              		.file 44 "../../lib/e-puck2_main-processor/ChibiOS//os/hal/include/serial.h"
 524              		.file 45 "../../lib/e-puck2_main-processor/ChibiOS//os/hal/ports/STM32/LLD/USARTv1/serial_lld.h"
 525              		.file 46 "../../lib/e-puck2_main-processor/ChibiOS//os/hal/include/sdc.h"
 526              		.file 47 "../../lib/e-puck2_main-processor/ChibiOS//os/hal/ports/STM32/LLD/sdc_lld.h"
 527              		.file 48 "../../lib/e-puck2_main-processor/ChibiOS//os/hal/include/spi.h"
 528              		.file 49 "../../lib/e-puck2_main-processor/ChibiOS//os/hal/ports/STM32/LLD/SPIv1/spi_lld.h"
 529              		.file 50 "../../lib/e-puck2_main-processor/ChibiOS//os/hal/include/usb.h"
 530              		.file 51 "../../lib/e-puck2_main-processor/ChibiOS//os/hal/ports/STM32/LLD/OTGv1/usb_lld.h"
 531              		.file 52 "../../lib/e-puck2_main-processor/ChibiOS//os/hal/ports/STM32/LLD/OTGv1/stm32_otg.h"
 532              		.file 53 "../../lib/e-puck2_main-processor/ChibiOS//os/hal/include/serial_usb.h"
 533              		.file 54 "c:\\users\\alexa\\downloads\\programmes\\eclipse_e-puck2\\tools\\gcc-arm-none-eabi-7-201
 534              		.file 55 "c:\\users\\alexa\\downloads\\programmes\\eclipse_e-puck2\\tools\\gcc-arm-none-eabi-7-201
 535              		.file 56 "c:\\users\\alexa\\downloads\\programmes\\eclipse_e-puck2\\tools\\gcc-arm-none-eabi-7-201
 536              		.file 57 "c:\\users\\alexa\\downloads\\programmes\\eclipse_e-puck2\\tools\\gcc-arm-none-eabi-7-201
 537              		.file 58 "../../lib/e-puck2_main-processor/src/usbcfg.h"
 538              		.file 59 "../../lib/e-puck2_main-processor/ChibiOS_ext/os/hal/include/../ports/STM32/STM32F4xx/dcm
 539              		.file 60 "c:\\users\\alexa\\downloads\\programmes\\eclipse_e-puck2\\tools\\gcc-arm-none-eabi-7-201
 540              		.file 61 "../../lib/e-puck2_main-processor/src/msgbus/messagebus.h"
 541              		.file 62 "c:\\users\\alexa\\downloads\\programmes\\eclipse_e-puck2\\tools\\gcc-arm-none-eabi-7-201
 542              		.file 63 "../../lib/e-puck2_main-processor/src/parameter/parameter.h"
 543              		.file 64 "./main.h"
 544              		.file 65 "../../lib/e-puck2_main-processor/ChibiOS//os/rt/include/chthreads.h"
 545              		.file 66 "./ir_processing.h"
 546              		.file 67 "../../lib/e-puck2_main-processor/src/leds.h"
 547              		.file 68 "../../lib/e-puck2_main-processor/src/motors.h"